
/home/xuhao/learngit/ysyx-workbench/nanos-lite/build/nanos-lite-riscv64-nemu.elf：     文件格式 elf64-littleriscv


Disassembly of section .text:

0000000080000000 <_start>:
    80000000:	00000413          	li	s0,0
    80000004:	00087117          	auipc	sp,0x87
    80000008:	ffc10113          	addi	sp,sp,-4 # 80087000 <_end>
    8000000c:	159000ef          	jal	ra,80000964 <_trm_init>

0000000080000010 <invalid_read>:
    80000010:	ff010113          	addi	sp,sp,-16
    80000014:	00001697          	auipc	a3,0x1
    80000018:	61c68693          	addi	a3,a3,1564 # 80001630 <__func__.2>
    8000001c:	01100613          	li	a2,17
    80000020:	00001597          	auipc	a1,0x1
    80000024:	2a858593          	addi	a1,a1,680 # 800012c8 <_etext+0x4>
    80000028:	00001517          	auipc	a0,0x1
    8000002c:	2d850513          	addi	a0,a0,728 # 80001300 <_etext+0x3c>
    80000030:	00113423          	sd	ra,8(sp)
    80000034:	7c9000ef          	jal	ra,80000ffc <printf>
    80000038:	00100513          	li	a0,1
    8000003c:	11d000ef          	jal	ra,80000958 <halt>

0000000080000040 <invalid_write>:
    80000040:	ff010113          	addi	sp,sp,-16
    80000044:	00001697          	auipc	a3,0x1
    80000048:	5dc68693          	addi	a3,a3,1500 # 80001620 <__func__.1>
    8000004c:	01600613          	li	a2,22
    80000050:	00001597          	auipc	a1,0x1
    80000054:	27858593          	addi	a1,a1,632 # 800012c8 <_etext+0x4>
    80000058:	00001517          	auipc	a0,0x1
    8000005c:	2a850513          	addi	a0,a0,680 # 80001300 <_etext+0x3c>
    80000060:	00113423          	sd	ra,8(sp)
    80000064:	799000ef          	jal	ra,80000ffc <printf>
    80000068:	00100513          	li	a0,1
    8000006c:	0ed000ef          	jal	ra,80000958 <halt>

0000000080000070 <init_fs>:
    80000070:	00008067          	ret

0000000080000074 <fs_open>:
    80000074:	ff010113          	addi	sp,sp,-16
    80000078:	00813023          	sd	s0,0(sp)
    8000007c:	00113423          	sd	ra,8(sp)
    80000080:	00050713          	mv	a4,a0
    80000084:	00075797          	auipc	a5,0x75
    80000088:	a7478793          	addi	a5,a5,-1420 # 80074af8 <file_table>
    8000008c:	00000413          	li	s0,0
    80000090:	01600613          	li	a2,22
    80000094:	00c0006f          	j	800000a0 <fs_open+0x2c>
    80000098:	0014041b          	addiw	s0,s0,1
    8000009c:	04c40463          	beq	s0,a2,800000e4 <fs_open+0x70>
    800000a0:	0007b683          	ld	a3,0(a5)
    800000a4:	02878793          	addi	a5,a5,40
    800000a8:	fee698e3          	bne	a3,a4,80000098 <fs_open+0x24>
    800000ac:	00040793          	mv	a5,s0
    800000b0:	00002697          	auipc	a3,0x2
    800000b4:	62068693          	addi	a3,a3,1568 # 800026d0 <__func__.0>
    800000b8:	02b00613          	li	a2,43
    800000bc:	00001597          	auipc	a1,0x1
    800000c0:	20c58593          	addi	a1,a1,524 # 800012c8 <_etext+0x4>
    800000c4:	00001517          	auipc	a0,0x1
    800000c8:	28450513          	addi	a0,a0,644 # 80001348 <_etext+0x84>
    800000cc:	731000ef          	jal	ra,80000ffc <printf>
    800000d0:	00813083          	ld	ra,8(sp)
    800000d4:	00040513          	mv	a0,s0
    800000d8:	00013403          	ld	s0,0(sp)
    800000dc:	01010113          	addi	sp,sp,16
    800000e0:	00008067          	ret
    800000e4:	00000413          	li	s0,0
    800000e8:	00813083          	ld	ra,8(sp)
    800000ec:	00040513          	mv	a0,s0
    800000f0:	00013403          	ld	s0,0(sp)
    800000f4:	01010113          	addi	sp,sp,16
    800000f8:	00008067          	ret

00000000800000fc <fs_read>:
    800000fc:	00251793          	slli	a5,a0,0x2
    80000100:	fd010113          	addi	sp,sp,-48
    80000104:	00a787b3          	add	a5,a5,a0
    80000108:	00913c23          	sd	s1,24(sp)
    8000010c:	00379793          	slli	a5,a5,0x3
    80000110:	00075497          	auipc	s1,0x75
    80000114:	9e848493          	addi	s1,s1,-1560 # 80074af8 <file_table>
    80000118:	00f484b3          	add	s1,s1,a5
    8000011c:	01213823          	sd	s2,16(sp)
    80000120:	00058913          	mv	s2,a1
    80000124:	0104b583          	ld	a1,16(s1)
    80000128:	00001517          	auipc	a0,0x1
    8000012c:	25050513          	addi	a0,a0,592 # 80001378 <_etext+0xb4>
    80000130:	02113423          	sd	ra,40(sp)
    80000134:	02813023          	sd	s0,32(sp)
    80000138:	01313423          	sd	s3,8(sp)
    8000013c:	00060413          	mv	s0,a2
    80000140:	0007e997          	auipc	s3,0x7e
    80000144:	ec098993          	addi	s3,s3,-320 # 8007e000 <seek_offset>
    80000148:	6b5000ef          	jal	ra,80000ffc <printf>
    8000014c:	0104b583          	ld	a1,16(s1)
    80000150:	0009b783          	ld	a5,0(s3)
    80000154:	00040613          	mv	a2,s0
    80000158:	00090513          	mv	a0,s2
    8000015c:	00f585b3          	add	a1,a1,a5
    80000160:	73c000ef          	jal	ra,8000089c <ramdisk_read>
    80000164:	02813083          	ld	ra,40(sp)
    80000168:	00040513          	mv	a0,s0
    8000016c:	02013403          	ld	s0,32(sp)
    80000170:	0009b023          	sd	zero,0(s3)
    80000174:	01813483          	ld	s1,24(sp)
    80000178:	01013903          	ld	s2,16(sp)
    8000017c:	00813983          	ld	s3,8(sp)
    80000180:	03010113          	addi	sp,sp,48
    80000184:	00008067          	ret

0000000080000188 <fs_lseek>:
    80000188:	00251793          	slli	a5,a0,0x2
    8000018c:	00a78533          	add	a0,a5,a0
    80000190:	00351513          	slli	a0,a0,0x3
    80000194:	00075797          	auipc	a5,0x75
    80000198:	96478793          	addi	a5,a5,-1692 # 80074af8 <file_table>
    8000019c:	00a78533          	add	a0,a5,a0
    800001a0:	01053783          	ld	a5,16(a0)
    800001a4:	00061c63          	bnez	a2,800001bc <fs_lseek+0x34>
    800001a8:	40f58533          	sub	a0,a1,a5
    800001ac:	0007e797          	auipc	a5,0x7e
    800001b0:	e4a7ba23          	sd	a0,-428(a5) # 8007e000 <seek_offset>
    800001b4:	00058513          	mv	a0,a1
    800001b8:	00008067          	ret
    800001bc:	00100713          	li	a4,1
    800001c0:	02e60263          	beq	a2,a4,800001e4 <fs_lseek+0x5c>
    800001c4:	00200713          	li	a4,2
    800001c8:	00e60a63          	beq	a2,a4,800001dc <fs_lseek+0x54>
    800001cc:	0007e597          	auipc	a1,0x7e
    800001d0:	e345b583          	ld	a1,-460(a1) # 8007e000 <seek_offset>
    800001d4:	00b78533          	add	a0,a5,a1
    800001d8:	00008067          	ret
    800001dc:	00853503          	ld	a0,8(a0)
    800001e0:	00a585b3          	add	a1,a1,a0
    800001e4:	0007e717          	auipc	a4,0x7e
    800001e8:	e0b73e23          	sd	a1,-484(a4) # 8007e000 <seek_offset>
    800001ec:	00f58533          	add	a0,a1,a5
    800001f0:	00008067          	ret

00000000800001f4 <fs_close>:
    800001f4:	00000513          	li	a0,0
    800001f8:	00008067          	ret

00000000800001fc <write>:
    800001fc:	fff5051b          	addiw	a0,a0,-1
    80000200:	00100793          	li	a5,1
    80000204:	00a7f663          	bgeu	a5,a0,80000210 <write+0x14>
    80000208:	fff00513          	li	a0,-1
    8000020c:	00008067          	ret
    80000210:	fe010113          	addi	sp,sp,-32
    80000214:	00913423          	sd	s1,8(sp)
    80000218:	00113c23          	sd	ra,24(sp)
    8000021c:	00813823          	sd	s0,16(sp)
    80000220:	01213023          	sd	s2,0(sp)
    80000224:	00060493          	mv	s1,a2
    80000228:	02060c63          	beqz	a2,80000260 <write+0x64>
    8000022c:	00058413          	mv	s0,a1
    80000230:	00c58933          	add	s2,a1,a2
    80000234:	00044503          	lbu	a0,0(s0)
    80000238:	00140413          	addi	s0,s0,1
    8000023c:	70c000ef          	jal	ra,80000948 <putch>
    80000240:	ff241ae3          	bne	s0,s2,80000234 <write+0x38>
    80000244:	00048513          	mv	a0,s1
    80000248:	01813083          	ld	ra,24(sp)
    8000024c:	01013403          	ld	s0,16(sp)
    80000250:	00813483          	ld	s1,8(sp)
    80000254:	00013903          	ld	s2,0(sp)
    80000258:	02010113          	addi	sp,sp,32
    8000025c:	00008067          	ret
    80000260:	00000513          	li	a0,0
    80000264:	fe5ff06f          	j	80000248 <write+0x4c>

0000000080000268 <init_mm>:
    80000268:	00001737          	lui	a4,0x1
    8000026c:	fff70713          	addi	a4,a4,-1 # fff <_entry_offset+0xfff>
    80000270:	00075797          	auipc	a5,0x75
    80000274:	c487b783          	ld	a5,-952(a5) # 80074eb8 <heap>
    80000278:	00e787b3          	add	a5,a5,a4
    8000027c:	fffff737          	lui	a4,0xfffff
    80000280:	00e7f733          	and	a4,a5,a4
    80000284:	00002697          	auipc	a3,0x2
    80000288:	45468693          	addi	a3,a3,1108 # 800026d8 <__func__.0>
    8000028c:	01a00613          	li	a2,26
    80000290:	00001597          	auipc	a1,0x1
    80000294:	3b058593          	addi	a1,a1,944 # 80001640 <__func__.2+0x10>
    80000298:	00001517          	auipc	a0,0x1
    8000029c:	42050513          	addi	a0,a0,1056 # 800016b8 <__func__.2+0x88>
    800002a0:	55d0006f          	j	80000ffc <printf>

00000000800002a4 <init_device>:
    800002a4:	ff010113          	addi	sp,sp,-16
    800002a8:	00001697          	auipc	a3,0x1
    800002ac:	4c068693          	addi	a3,a3,1216 # 80001768 <__func__.0>
    800002b0:	02200613          	li	a2,34
    800002b4:	00001597          	auipc	a1,0x1
    800002b8:	44458593          	addi	a1,a1,1092 # 800016f8 <__func__.2+0xc8>
    800002bc:	00001517          	auipc	a0,0x1
    800002c0:	47c50513          	addi	a0,a0,1148 # 80001738 <__func__.2+0x108>
    800002c4:	00113423          	sd	ra,8(sp)
    800002c8:	535000ef          	jal	ra,80000ffc <printf>
    800002cc:	00813083          	ld	ra,8(sp)
    800002d0:	01010113          	addi	sp,sp,16
    800002d4:	7440006f          	j	80000a18 <ioe_init>

00000000800002d8 <strace_main>:
    800002d8:	00900793          	li	a5,9
    800002dc:	02a7e063          	bltu	a5,a0,800002fc <strace_main+0x24>
    800002e0:	00001717          	auipc	a4,0x1
    800002e4:	67070713          	addi	a4,a4,1648 # 80001950 <__func__.0+0x1e8>
    800002e8:	00251513          	slli	a0,a0,0x2
    800002ec:	00e50533          	add	a0,a0,a4
    800002f0:	00052783          	lw	a5,0(a0)
    800002f4:	00e787b3          	add	a5,a5,a4
    800002f8:	00078067          	jr	a5
    800002fc:	00001517          	auipc	a0,0x1
    80000300:	63c50513          	addi	a0,a0,1596 # 80001938 <__func__.0+0x1d0>
    80000304:	4f90006f          	j	80000ffc <printf>
    80000308:	00001517          	auipc	a0,0x1
    8000030c:	47050513          	addi	a0,a0,1136 # 80001778 <__func__.0+0x10>
    80000310:	4ed0006f          	j	80000ffc <printf>
    80000314:	00001517          	auipc	a0,0x1
    80000318:	4a450513          	addi	a0,a0,1188 # 800017b8 <__func__.0+0x50>
    8000031c:	4e10006f          	j	80000ffc <printf>
    80000320:	00001517          	auipc	a0,0x1
    80000324:	4d850513          	addi	a0,a0,1240 # 800017f8 <__func__.0+0x90>
    80000328:	4d50006f          	j	80000ffc <printf>
    8000032c:	00001517          	auipc	a0,0x1
    80000330:	50c50513          	addi	a0,a0,1292 # 80001838 <__func__.0+0xd0>
    80000334:	4c90006f          	j	80000ffc <printf>
    80000338:	00001517          	auipc	a0,0x1
    8000033c:	54050513          	addi	a0,a0,1344 # 80001878 <__func__.0+0x110>
    80000340:	4bd0006f          	j	80000ffc <printf>
    80000344:	00001517          	auipc	a0,0x1
    80000348:	57450513          	addi	a0,a0,1396 # 800018b8 <__func__.0+0x150>
    8000034c:	4b10006f          	j	80000ffc <printf>
    80000350:	00001517          	auipc	a0,0x1
    80000354:	5a850513          	addi	a0,a0,1448 # 800018f8 <__func__.0+0x190>
    80000358:	4a50006f          	j	80000ffc <printf>

000000008000035c <do_syscall>:
    8000035c:	08853703          	ld	a4,136(a0)
    80000360:	ff010113          	addi	sp,sp,-16
    80000364:	00113423          	sd	ra,8(sp)
    80000368:	00813023          	sd	s0,0(sp)
    8000036c:	00900793          	li	a5,9
    80000370:	05053803          	ld	a6,80(a0)
    80000374:	05853583          	ld	a1,88(a0)
    80000378:	06053603          	ld	a2,96(a0)
    8000037c:	0ee7ea63          	bltu	a5,a4,80000470 <do_syscall+0x114>
    80000380:	00050413          	mv	s0,a0
    80000384:	00271693          	slli	a3,a4,0x2
    80000388:	00001517          	auipc	a0,0x1
    8000038c:	67850513          	addi	a0,a0,1656 # 80001a00 <__func__.0+0x298>
    80000390:	00a686b3          	add	a3,a3,a0
    80000394:	0006a783          	lw	a5,0(a3)
    80000398:	00a787b3          	add	a5,a5,a0
    8000039c:	00078067          	jr	a5
    800003a0:	1a1000ef          	jal	ra,80000d40 <yield>
    800003a4:	04043823          	sd	zero,80(s0)
    800003a8:	00013403          	ld	s0,0(sp)
    800003ac:	00813083          	ld	ra,8(sp)
    800003b0:	00000593          	li	a1,0
    800003b4:	00100513          	li	a0,1
    800003b8:	01010113          	addi	sp,sp,16
    800003bc:	f1dff06f          	j	800002d8 <strace_main>
    800003c0:	0008051b          	sext.w	a0,a6
    800003c4:	d39ff0ef          	jal	ra,800000fc <fs_read>
    800003c8:	04a43823          	sd	a0,80(s0)
    800003cc:	00013403          	ld	s0,0(sp)
    800003d0:	00813083          	ld	ra,8(sp)
    800003d4:	00050593          	mv	a1,a0
    800003d8:	00300513          	li	a0,3
    800003dc:	01010113          	addi	sp,sp,16
    800003e0:	ef9ff06f          	j	800002d8 <strace_main>
    800003e4:	0008051b          	sext.w	a0,a6
    800003e8:	e15ff0ef          	jal	ra,800001fc <write>
    800003ec:	04a43823          	sd	a0,80(s0)
    800003f0:	00013403          	ld	s0,0(sp)
    800003f4:	00813083          	ld	ra,8(sp)
    800003f8:	00050593          	mv	a1,a0
    800003fc:	00400513          	li	a0,4
    80000400:	01010113          	addi	sp,sp,16
    80000404:	ed5ff06f          	j	800002d8 <strace_main>
    80000408:	0008051b          	sext.w	a0,a6
    8000040c:	de9ff0ef          	jal	ra,800001f4 <fs_close>
    80000410:	04a43823          	sd	a0,80(s0)
    80000414:	00013403          	ld	s0,0(sp)
    80000418:	00813083          	ld	ra,8(sp)
    8000041c:	00050593          	mv	a1,a0
    80000420:	00700513          	li	a0,7
    80000424:	01010113          	addi	sp,sp,16
    80000428:	eb1ff06f          	j	800002d8 <strace_main>
    8000042c:	0006061b          	sext.w	a2,a2
    80000430:	0008051b          	sext.w	a0,a6
    80000434:	d55ff0ef          	jal	ra,80000188 <fs_lseek>
    80000438:	04a43823          	sd	a0,80(s0)
    8000043c:	00013403          	ld	s0,0(sp)
    80000440:	00813083          	ld	ra,8(sp)
    80000444:	00050593          	mv	a1,a0
    80000448:	00800513          	li	a0,8
    8000044c:	01010113          	addi	sp,sp,16
    80000450:	e89ff06f          	j	800002d8 <strace_main>
    80000454:	04043823          	sd	zero,80(s0)
    80000458:	00013403          	ld	s0,0(sp)
    8000045c:	00813083          	ld	ra,8(sp)
    80000460:	00000593          	li	a1,0
    80000464:	00900513          	li	a0,9
    80000468:	01010113          	addi	sp,sp,16
    8000046c:	e6dff06f          	j	800002d8 <strace_main>
    80000470:	00001697          	auipc	a3,0x1
    80000474:	5b868693          	addi	a3,a3,1464 # 80001a28 <__func__.0>
    80000478:	03900613          	li	a2,57
    8000047c:	00001597          	auipc	a1,0x1
    80000480:	4fc58593          	addi	a1,a1,1276 # 80001978 <__func__.0+0x210>
    80000484:	00001517          	auipc	a0,0x1
    80000488:	53450513          	addi	a0,a0,1332 # 800019b8 <__func__.0+0x250>
    8000048c:	371000ef          	jal	ra,80000ffc <printf>
    80000490:	00100513          	li	a0,1
    80000494:	4c4000ef          	jal	ra,80000958 <halt>
    80000498:	00000513          	li	a0,0
    8000049c:	00080593          	mv	a1,a6
    800004a0:	e39ff0ef          	jal	ra,800002d8 <strace_main>
    800004a4:	05042503          	lw	a0,80(s0)
    800004a8:	4b0000ef          	jal	ra,80000958 <halt>

00000000800004ac <init_proc>:
    800004ac:	ff010113          	addi	sp,sp,-16
    800004b0:	00001597          	auipc	a1,0x1
    800004b4:	58858593          	addi	a1,a1,1416 # 80001a38 <__func__.0+0x10>
    800004b8:	00076797          	auipc	a5,0x76
    800004bc:	b4878793          	addi	a5,a5,-1208 # 80076000 <pcb_boot>
    800004c0:	00001697          	auipc	a3,0x1
    800004c4:	64868693          	addi	a3,a3,1608 # 80001b08 <__func__.0>
    800004c8:	01900613          	li	a2,25
    800004cc:	00001517          	auipc	a0,0x1
    800004d0:	60450513          	addi	a0,a0,1540 # 80001ad0 <__func__.0+0xa8>
    800004d4:	00113423          	sd	ra,8(sp)
    800004d8:	0007e717          	auipc	a4,0x7e
    800004dc:	b2f73823          	sd	a5,-1232(a4) # 8007e008 <current>
    800004e0:	31d000ef          	jal	ra,80000ffc <printf>
    800004e4:	00813083          	ld	ra,8(sp)
    800004e8:	00001597          	auipc	a1,0x1
    800004ec:	ee058593          	addi	a1,a1,-288 # 800013c8 <_etext+0x104>
    800004f0:	00000513          	li	a0,0
    800004f4:	01010113          	addi	sp,sp,16
    800004f8:	1fc0006f          	j	800006f4 <naive_uload>

00000000800004fc <do_event>:
    800004fc:	00052703          	lw	a4,0(a0)
    80000500:	ff010113          	addi	sp,sp,-16
    80000504:	00813023          	sd	s0,0(sp)
    80000508:	00113423          	sd	ra,8(sp)
    8000050c:	00200793          	li	a5,2
    80000510:	00058413          	mv	s0,a1
    80000514:	02f70e63          	beq	a4,a5,80000550 <do_event+0x54>
    80000518:	00400793          	li	a5,4
    8000051c:	08f70e63          	beq	a4,a5,800005b8 <do_event+0xbc>
    80000520:	00100793          	li	a5,1
    80000524:	00002697          	auipc	a3,0x2
    80000528:	cec68693          	addi	a3,a3,-788 # 80002210 <__func__.0>
    8000052c:	06f70063          	beq	a4,a5,8000058c <do_event+0x90>
    80000530:	00800613          	li	a2,8
    80000534:	00002597          	auipc	a1,0x2
    80000538:	b5c58593          	addi	a1,a1,-1188 # 80002090 <logo+0x57e>
    8000053c:	00002517          	auipc	a0,0x2
    80000540:	c4450513          	addi	a0,a0,-956 # 80002180 <logo+0x66e>
    80000544:	2b9000ef          	jal	ra,80000ffc <printf>
    80000548:	00100513          	li	a0,1
    8000054c:	40c000ef          	jal	ra,80000958 <halt>
    80000550:	00002697          	auipc	a3,0x2
    80000554:	cc068693          	addi	a3,a3,-832 # 80002210 <__func__.0>
    80000558:	00600613          	li	a2,6
    8000055c:	00002597          	auipc	a1,0x2
    80000560:	b3458593          	addi	a1,a1,-1228 # 80002090 <logo+0x57e>
    80000564:	00002517          	auipc	a0,0x2
    80000568:	ba450513          	addi	a0,a0,-1116 # 80002108 <logo+0x5f6>
    8000056c:	291000ef          	jal	ra,80000ffc <printf>
    80000570:	00040513          	mv	a0,s0
    80000574:	de9ff0ef          	jal	ra,8000035c <do_syscall>
    80000578:	00813083          	ld	ra,8(sp)
    8000057c:	00040513          	mv	a0,s0
    80000580:	00013403          	ld	s0,0(sp)
    80000584:	01010113          	addi	sp,sp,16
    80000588:	00008067          	ret
    8000058c:	00500613          	li	a2,5
    80000590:	00002597          	auipc	a1,0x2
    80000594:	b0058593          	addi	a1,a1,-1280 # 80002090 <logo+0x57e>
    80000598:	00002517          	auipc	a0,0x2
    8000059c:	b3850513          	addi	a0,a0,-1224 # 800020d0 <logo+0x5be>
    800005a0:	25d000ef          	jal	ra,80000ffc <printf>
    800005a4:	00813083          	ld	ra,8(sp)
    800005a8:	00040513          	mv	a0,s0
    800005ac:	00013403          	ld	s0,0(sp)
    800005b0:	01010113          	addi	sp,sp,16
    800005b4:	00008067          	ret
    800005b8:	00002697          	auipc	a3,0x2
    800005bc:	c5868693          	addi	a3,a3,-936 # 80002210 <__func__.0>
    800005c0:	00700613          	li	a2,7
    800005c4:	00002597          	auipc	a1,0x2
    800005c8:	acc58593          	addi	a1,a1,-1332 # 80002090 <logo+0x57e>
    800005cc:	00002517          	auipc	a0,0x2
    800005d0:	b7c50513          	addi	a0,a0,-1156 # 80002148 <logo+0x636>
    800005d4:	229000ef          	jal	ra,80000ffc <printf>
    800005d8:	00813083          	ld	ra,8(sp)
    800005dc:	00040513          	mv	a0,s0
    800005e0:	00013403          	ld	s0,0(sp)
    800005e4:	01010113          	addi	sp,sp,16
    800005e8:	00008067          	ret

00000000800005ec <init_irq>:
    800005ec:	ff010113          	addi	sp,sp,-16
    800005f0:	00002697          	auipc	a3,0x2
    800005f4:	c3068693          	addi	a3,a3,-976 # 80002220 <__func__.1>
    800005f8:	00f00613          	li	a2,15
    800005fc:	00002597          	auipc	a1,0x2
    80000600:	a9458593          	addi	a1,a1,-1388 # 80002090 <logo+0x57e>
    80000604:	00002517          	auipc	a0,0x2
    80000608:	bc450513          	addi	a0,a0,-1084 # 800021c8 <logo+0x6b6>
    8000060c:	00113423          	sd	ra,8(sp)
    80000610:	1ed000ef          	jal	ra,80000ffc <printf>
    80000614:	00813083          	ld	ra,8(sp)
    80000618:	00000517          	auipc	a0,0x0
    8000061c:	ee450513          	addi	a0,a0,-284 # 800004fc <do_event>
    80000620:	01010113          	addi	sp,sp,16
    80000624:	6fc0006f          	j	80000d20 <cte_init>

0000000080000628 <main>:
    80000628:	ff010113          	addi	sp,sp,-16
    8000062c:	00001597          	auipc	a1,0x1
    80000630:	4e658593          	addi	a1,a1,1254 # 80001b12 <logo>
    80000634:	00002517          	auipc	a0,0x2
    80000638:	bfc50513          	addi	a0,a0,-1028 # 80002230 <__func__.1+0x10>
    8000063c:	00113423          	sd	ra,8(sp)
    80000640:	00813023          	sd	s0,0(sp)
    80000644:	1b9000ef          	jal	ra,80000ffc <printf>
    80000648:	00002417          	auipc	s0,0x2
    8000064c:	09840413          	addi	s0,s0,152 # 800026e0 <__func__.0>
    80000650:	00040693          	mv	a3,s0
    80000654:	00d00613          	li	a2,13
    80000658:	00002597          	auipc	a1,0x2
    8000065c:	be058593          	addi	a1,a1,-1056 # 80002238 <__func__.1+0x18>
    80000660:	00002517          	auipc	a0,0x2
    80000664:	c1850513          	addi	a0,a0,-1000 # 80002278 <__func__.1+0x58>
    80000668:	195000ef          	jal	ra,80000ffc <printf>
    8000066c:	00002797          	auipc	a5,0x2
    80000670:	c4478793          	addi	a5,a5,-956 # 800022b0 <__func__.1+0x90>
    80000674:	00002717          	auipc	a4,0x2
    80000678:	c4c70713          	addi	a4,a4,-948 # 800022c0 <__func__.1+0xa0>
    8000067c:	00e00613          	li	a2,14
    80000680:	00002597          	auipc	a1,0x2
    80000684:	bb858593          	addi	a1,a1,-1096 # 80002238 <__func__.1+0x18>
    80000688:	00040693          	mv	a3,s0
    8000068c:	00002517          	auipc	a0,0x2
    80000690:	c4450513          	addi	a0,a0,-956 # 800022d0 <__func__.1+0xb0>
    80000694:	169000ef          	jal	ra,80000ffc <printf>
    80000698:	bd1ff0ef          	jal	ra,80000268 <init_mm>
    8000069c:	c09ff0ef          	jal	ra,800002a4 <init_device>
    800006a0:	274000ef          	jal	ra,80000914 <init_ramdisk>
    800006a4:	f49ff0ef          	jal	ra,800005ec <init_irq>
    800006a8:	9c9ff0ef          	jal	ra,80000070 <init_fs>
    800006ac:	e01ff0ef          	jal	ra,800004ac <init_proc>
    800006b0:	00040693          	mv	a3,s0
    800006b4:	01e00613          	li	a2,30
    800006b8:	00002597          	auipc	a1,0x2
    800006bc:	b8058593          	addi	a1,a1,-1152 # 80002238 <__func__.1+0x18>
    800006c0:	00002517          	auipc	a0,0x2
    800006c4:	c4050513          	addi	a0,a0,-960 # 80002300 <__func__.1+0xe0>
    800006c8:	135000ef          	jal	ra,80000ffc <printf>
    800006cc:	674000ef          	jal	ra,80000d40 <yield>
    800006d0:	00040693          	mv	a3,s0
    800006d4:	02400613          	li	a2,36
    800006d8:	00002597          	auipc	a1,0x2
    800006dc:	b6058593          	addi	a1,a1,-1184 # 80002238 <__func__.1+0x18>
    800006e0:	00002517          	auipc	a0,0x2
    800006e4:	c5050513          	addi	a0,a0,-944 # 80002330 <__func__.1+0x110>
    800006e8:	115000ef          	jal	ra,80000ffc <printf>
    800006ec:	00100513          	li	a0,1
    800006f0:	268000ef          	jal	ra,80000958 <halt>

00000000800006f4 <naive_uload>:
    800006f4:	f6010113          	addi	sp,sp,-160
    800006f8:	00058513          	mv	a0,a1
    800006fc:	00000613          	li	a2,0
    80000700:	00000593          	li	a1,0
    80000704:	08113c23          	sd	ra,152(sp)
    80000708:	08913423          	sd	s1,136(sp)
    8000070c:	08813823          	sd	s0,144(sp)
    80000710:	09213023          	sd	s2,128(sp)
    80000714:	961ff0ef          	jal	ra,80000074 <fs_open>
    80000718:	00050493          	mv	s1,a0
    8000071c:	04000613          	li	a2,64
    80000720:	04010593          	addi	a1,sp,64
    80000724:	00000513          	li	a0,0
    80000728:	04013023          	sd	zero,64(sp)
    8000072c:	04013423          	sd	zero,72(sp)
    80000730:	04013823          	sd	zero,80(sp)
    80000734:	04013c23          	sd	zero,88(sp)
    80000738:	06013023          	sd	zero,96(sp)
    8000073c:	06013423          	sd	zero,104(sp)
    80000740:	06013823          	sd	zero,112(sp)
    80000744:	06013c23          	sd	zero,120(sp)
    80000748:	00013423          	sd	zero,8(sp)
    8000074c:	00013823          	sd	zero,16(sp)
    80000750:	00013c23          	sd	zero,24(sp)
    80000754:	02013023          	sd	zero,32(sp)
    80000758:	02013423          	sd	zero,40(sp)
    8000075c:	02013823          	sd	zero,48(sp)
    80000760:	02013c23          	sd	zero,56(sp)
    80000764:	999ff0ef          	jal	ra,800000fc <fs_read>
    80000768:	04012703          	lw	a4,64(sp)
    8000076c:	464c47b7          	lui	a5,0x464c4
    80000770:	57f78793          	addi	a5,a5,1407 # 464c457f <_entry_offset+0x464c457f>
    80000774:	0ef71c63          	bne	a4,a5,8000086c <naive_uload+0x178>
    80000778:	07815783          	lhu	a5,120(sp)
    8000077c:	00000413          	li	s0,0
    80000780:	00002917          	auipc	s2,0x2
    80000784:	cb090913          	addi	s2,s2,-848 # 80002430 <__func__.1+0x210>
    80000788:	00079a63          	bnez	a5,8000079c <naive_uload+0xa8>
    8000078c:	09c0006f          	j	80000828 <naive_uload+0x134>
    80000790:	07815783          	lhu	a5,120(sp)
    80000794:	0014041b          	addiw	s0,s0,1
    80000798:	08f45863          	bge	s0,a5,80000828 <naive_uload+0x134>
    8000079c:	07615783          	lhu	a5,118(sp)
    800007a0:	06013583          	ld	a1,96(sp)
    800007a4:	00100613          	li	a2,1
    800007a8:	028787bb          	mulw	a5,a5,s0
    800007ac:	00048513          	mv	a0,s1
    800007b0:	00b785b3          	add	a1,a5,a1
    800007b4:	9d5ff0ef          	jal	ra,80000188 <fs_lseek>
    800007b8:	07615603          	lhu	a2,118(sp)
    800007bc:	00810593          	addi	a1,sp,8
    800007c0:	00048513          	mv	a0,s1
    800007c4:	939ff0ef          	jal	ra,800000fc <fs_read>
    800007c8:	00812703          	lw	a4,8(sp)
    800007cc:	00100793          	li	a5,1
    800007d0:	fcf710e3          	bne	a4,a5,80000790 <naive_uload+0x9c>
    800007d4:	00040593          	mv	a1,s0
    800007d8:	00090513          	mv	a0,s2
    800007dc:	021000ef          	jal	ra,80000ffc <printf>
    800007e0:	01013583          	ld	a1,16(sp)
    800007e4:	00100613          	li	a2,1
    800007e8:	00048513          	mv	a0,s1
    800007ec:	99dff0ef          	jal	ra,80000188 <fs_lseek>
    800007f0:	03013603          	ld	a2,48(sp)
    800007f4:	02013583          	ld	a1,32(sp)
    800007f8:	00048513          	mv	a0,s1
    800007fc:	0014041b          	addiw	s0,s0,1
    80000800:	8fdff0ef          	jal	ra,800000fc <fs_read>
    80000804:	02813783          	ld	a5,40(sp)
    80000808:	03013603          	ld	a2,48(sp)
    8000080c:	01813503          	ld	a0,24(sp)
    80000810:	00000593          	li	a1,0
    80000814:	40f60633          	sub	a2,a2,a5
    80000818:	00a78533          	add	a0,a5,a0
    8000081c:	670000ef          	jal	ra,80000e8c <memset>
    80000820:	07815783          	lhu	a5,120(sp)
    80000824:	f6f44ce3          	blt	s0,a5,8000079c <naive_uload+0xa8>
    80000828:	05813403          	ld	s0,88(sp)
    8000082c:	00002697          	auipc	a3,0x2
    80000830:	c4468693          	addi	a3,a3,-956 # 80002470 <__func__.1>
    80000834:	02900613          	li	a2,41
    80000838:	00040713          	mv	a4,s0
    8000083c:	00002597          	auipc	a1,0x2
    80000840:	b6c58593          	addi	a1,a1,-1172 # 800023a8 <__func__.1+0x188>
    80000844:	00002517          	auipc	a0,0x2
    80000848:	bfc50513          	addi	a0,a0,-1028 # 80002440 <__func__.1+0x220>
    8000084c:	7b0000ef          	jal	ra,80000ffc <printf>
    80000850:	00040793          	mv	a5,s0
    80000854:	09013403          	ld	s0,144(sp)
    80000858:	09813083          	ld	ra,152(sp)
    8000085c:	08813483          	ld	s1,136(sp)
    80000860:	08013903          	ld	s2,128(sp)
    80000864:	0a010113          	addi	sp,sp,160
    80000868:	00078067          	jr	a5
    8000086c:	00002717          	auipc	a4,0x2
    80000870:	b0c70713          	addi	a4,a4,-1268 # 80002378 <__func__.1+0x158>
    80000874:	00002697          	auipc	a3,0x2
    80000878:	e7468693          	addi	a3,a3,-396 # 800026e8 <__func__.0>
    8000087c:	01500613          	li	a2,21
    80000880:	00002597          	auipc	a1,0x2
    80000884:	b2858593          	addi	a1,a1,-1240 # 800023a8 <__func__.1+0x188>
    80000888:	00002517          	auipc	a0,0x2
    8000088c:	b6050513          	addi	a0,a0,-1184 # 800023e8 <__func__.1+0x1c8>
    80000890:	76c000ef          	jal	ra,80000ffc <printf>
    80000894:	00100513          	li	a0,1
    80000898:	0c0000ef          	jal	ra,80000958 <halt>

000000008000089c <ramdisk_read>:
    8000089c:	ff010113          	addi	sp,sp,-16
    800008a0:	00002717          	auipc	a4,0x2
    800008a4:	e5170713          	addi	a4,a4,-431 # 800026f1 <ramdisk_start>
    800008a8:	00074797          	auipc	a5,0x74
    800008ac:	24978793          	addi	a5,a5,585 # 80074af1 <_data>
    800008b0:	00113423          	sd	ra,8(sp)
    800008b4:	00813023          	sd	s0,0(sp)
    800008b8:	00c586b3          	add	a3,a1,a2
    800008bc:	40e787b3          	sub	a5,a5,a4
    800008c0:	02d7e263          	bltu	a5,a3,800008e4 <ramdisk_read+0x48>
    800008c4:	00b705b3          	add	a1,a4,a1
    800008c8:	00060413          	mv	s0,a2
    800008cc:	5e0000ef          	jal	ra,80000eac <memcpy>
    800008d0:	00813083          	ld	ra,8(sp)
    800008d4:	00040513          	mv	a0,s0
    800008d8:	00013403          	ld	s0,0(sp)
    800008dc:	01010113          	addi	sp,sp,16
    800008e0:	00008067          	ret
    800008e4:	00002717          	auipc	a4,0x2
    800008e8:	b9c70713          	addi	a4,a4,-1124 # 80002480 <__func__.1+0x10>
    800008ec:	00002697          	auipc	a3,0x2
    800008f0:	c5468693          	addi	a3,a3,-940 # 80002540 <__func__.2>
    800008f4:	00e00613          	li	a2,14
    800008f8:	00002597          	auipc	a1,0x2
    800008fc:	ba858593          	addi	a1,a1,-1112 # 800024a0 <__func__.1+0x30>
    80000900:	00002517          	auipc	a0,0x2
    80000904:	ae850513          	addi	a0,a0,-1304 # 800023e8 <__func__.1+0x1c8>
    80000908:	6f4000ef          	jal	ra,80000ffc <printf>
    8000090c:	00100513          	li	a0,1
    80000910:	048000ef          	jal	ra,80000958 <halt>

0000000080000914 <init_ramdisk>:
    80000914:	00074797          	auipc	a5,0x74
    80000918:	1dd78793          	addi	a5,a5,477 # 80074af1 <_data>
    8000091c:	00002717          	auipc	a4,0x2
    80000920:	dd570713          	addi	a4,a4,-555 # 800026f1 <ramdisk_start>
    80000924:	40e78833          	sub	a6,a5,a4
    80000928:	00002697          	auipc	a3,0x2
    8000092c:	c0868693          	addi	a3,a3,-1016 # 80002530 <__func__.0>
    80000930:	01b00613          	li	a2,27
    80000934:	00002597          	auipc	a1,0x2
    80000938:	b6c58593          	addi	a1,a1,-1172 # 800024a0 <__func__.1+0x30>
    8000093c:	00002517          	auipc	a0,0x2
    80000940:	ba450513          	addi	a0,a0,-1116 # 800024e0 <__func__.1+0x70>
    80000944:	6b80006f          	j	80000ffc <printf>

0000000080000948 <putch>:
    80000948:	00500793          	li	a5,5
    8000094c:	01d79793          	slli	a5,a5,0x1d
    80000950:	3ea78c23          	sb	a0,1016(a5)
    80000954:	00008067          	ret

0000000080000958 <halt>:
    80000958:	00050513          	mv	a0,a0
    8000095c:	00100073          	ebreak
    80000960:	0000006f          	j	80000960 <halt+0x8>

0000000080000964 <_trm_init>:
    80000964:	ff010113          	addi	sp,sp,-16
    80000968:	00002517          	auipc	a0,0x2
    8000096c:	d8850513          	addi	a0,a0,-632 # 800026f0 <mainargs>
    80000970:	00113423          	sd	ra,8(sp)
    80000974:	cb5ff0ef          	jal	ra,80000628 <main>
    80000978:	00050513          	mv	a0,a0
    8000097c:	00100073          	ebreak
    80000980:	0000006f          	j	80000980 <_trm_init+0x1c>

0000000080000984 <__am_timer_config>:
    80000984:	00100793          	li	a5,1
    80000988:	00f50023          	sb	a5,0(a0)
    8000098c:	00f500a3          	sb	a5,1(a0)
    80000990:	00008067          	ret

0000000080000994 <__am_input_config>:
    80000994:	00100793          	li	a5,1
    80000998:	00f50023          	sb	a5,0(a0)
    8000099c:	00008067          	ret

00000000800009a0 <__am_uart_config>:
    800009a0:	00050023          	sb	zero,0(a0)
    800009a4:	00008067          	ret

00000000800009a8 <__am_net_config>:
    800009a8:	00050023          	sb	zero,0(a0)
    800009ac:	00008067          	ret

00000000800009b0 <fail>:
    800009b0:	ff010113          	addi	sp,sp,-16
    800009b4:	00813023          	sd	s0,0(sp)
    800009b8:	00113423          	sd	ra,8(sp)
    800009bc:	00002417          	auipc	s0,0x2
    800009c0:	b9440413          	addi	s0,s0,-1132 # 80002550 <__func__.2+0x10>
    800009c4:	04100513          	li	a0,65
    800009c8:	00140413          	addi	s0,s0,1
    800009cc:	f7dff0ef          	jal	ra,80000948 <putch>
    800009d0:	00044503          	lbu	a0,0(s0)
    800009d4:	fe051ae3          	bnez	a0,800009c8 <fail+0x18>
    800009d8:	00002417          	auipc	s0,0x2
    800009dc:	b8840413          	addi	s0,s0,-1144 # 80002560 <__func__.2+0x20>
    800009e0:	06100513          	li	a0,97
    800009e4:	00140413          	addi	s0,s0,1
    800009e8:	f61ff0ef          	jal	ra,80000948 <putch>
    800009ec:	00044503          	lbu	a0,0(s0)
    800009f0:	fe051ae3          	bnez	a0,800009e4 <fail+0x34>
    800009f4:	00002417          	auipc	s0,0x2
    800009f8:	b8c40413          	addi	s0,s0,-1140 # 80002580 <__func__.2+0x40>
    800009fc:	02000513          	li	a0,32
    80000a00:	00140413          	addi	s0,s0,1
    80000a04:	f45ff0ef          	jal	ra,80000948 <putch>
    80000a08:	00044503          	lbu	a0,0(s0)
    80000a0c:	fe051ae3          	bnez	a0,80000a00 <fail+0x50>
    80000a10:	00100513          	li	a0,1
    80000a14:	f45ff0ef          	jal	ra,80000958 <halt>

0000000080000a18 <ioe_init>:
    80000a18:	ff010113          	addi	sp,sp,-16
    80000a1c:	00113423          	sd	ra,8(sp)
    80000a20:	00074797          	auipc	a5,0x74
    80000a24:	4a878793          	addi	a5,a5,1192 # 80074ec8 <lut>
    80000a28:	00075697          	auipc	a3,0x75
    80000a2c:	8a068693          	addi	a3,a3,-1888 # 800752c8 <lut+0x400>
    80000a30:	00000617          	auipc	a2,0x0
    80000a34:	f8060613          	addi	a2,a2,-128 # 800009b0 <fail>
    80000a38:	00c0006f          	j	80000a44 <ioe_init+0x2c>
    80000a3c:	00878793          	addi	a5,a5,8
    80000a40:	00d78c63          	beq	a5,a3,80000a58 <ioe_init+0x40>
    80000a44:	0007b703          	ld	a4,0(a5)
    80000a48:	fe071ae3          	bnez	a4,80000a3c <ioe_init+0x24>
    80000a4c:	00c7b023          	sd	a2,0(a5)
    80000a50:	00878793          	addi	a5,a5,8
    80000a54:	fed798e3          	bne	a5,a3,80000a44 <ioe_init+0x2c>
    80000a58:	090000ef          	jal	ra,80000ae8 <__am_gpu_init>
    80000a5c:	018000ef          	jal	ra,80000a74 <__am_timer_init>
    80000a60:	1b8000ef          	jal	ra,80000c18 <__am_audio_init>
    80000a64:	00813083          	ld	ra,8(sp)
    80000a68:	00100513          	li	a0,1
    80000a6c:	01010113          	addi	sp,sp,16
    80000a70:	00008067          	ret

0000000080000a74 <__am_timer_init>:
    80000a74:	00008067          	ret

0000000080000a78 <__am_timer_uptime>:
    80000a78:	00500713          	li	a4,5
    80000a7c:	01d71713          	slli	a4,a4,0x1d
    80000a80:	04872683          	lw	a3,72(a4)
    80000a84:	04c72783          	lw	a5,76(a4)
    80000a88:	00d7e7b3          	or	a5,a5,a3
    80000a8c:	02079793          	slli	a5,a5,0x20
    80000a90:	0207d793          	srli	a5,a5,0x20
    80000a94:	00f53023          	sd	a5,0(a0)
    80000a98:	00008067          	ret

0000000080000a9c <__am_timer_rtc>:
    80000a9c:	76c00793          	li	a5,1900
    80000aa0:	00052a23          	sw	zero,20(a0)
    80000aa4:	00052823          	sw	zero,16(a0)
    80000aa8:	00052623          	sw	zero,12(a0)
    80000aac:	00052423          	sw	zero,8(a0)
    80000ab0:	00052223          	sw	zero,4(a0)
    80000ab4:	00f52023          	sw	a5,0(a0)
    80000ab8:	00008067          	ret

0000000080000abc <__am_input_keybrd>:
    80000abc:	00500793          	li	a5,5
    80000ac0:	01d79793          	slli	a5,a5,0x1d
    80000ac4:	0607a683          	lw	a3,96(a5)
    80000ac8:	ffff87b7          	lui	a5,0xffff8
    80000acc:	fff78793          	addi	a5,a5,-1 # ffffffffffff7fff <_end+0xffffffff7ff70fff>
    80000ad0:	00f6d71b          	srliw	a4,a3,0xf
    80000ad4:	00177713          	andi	a4,a4,1
    80000ad8:	00d7f7b3          	and	a5,a5,a3
    80000adc:	00e50023          	sb	a4,0(a0)
    80000ae0:	00f52223          	sw	a5,4(a0)
    80000ae4:	00008067          	ret

0000000080000ae8 <__am_gpu_init>:
    80000ae8:	0a100713          	li	a4,161
    80000aec:	0001d6b7          	lui	a3,0x1d
    80000af0:	01871713          	slli	a4,a4,0x18
    80000af4:	00000793          	li	a5,0
    80000af8:	4c068693          	addi	a3,a3,1216 # 1d4c0 <_entry_offset+0x1d4c0>
    80000afc:	00f72023          	sw	a5,0(a4)
    80000b00:	0017879b          	addiw	a5,a5,1
    80000b04:	00470713          	addi	a4,a4,4
    80000b08:	fed79ae3          	bne	a5,a3,80000afc <__am_gpu_init+0x14>
    80000b0c:	00500793          	li	a5,5
    80000b10:	01d79793          	slli	a5,a5,0x1d
    80000b14:	00100713          	li	a4,1
    80000b18:	10e7a223          	sw	a4,260(a5)
    80000b1c:	00008067          	ret

0000000080000b20 <__am_gpu_config>:
    80000b20:	00002797          	auipc	a5,0x2
    80000b24:	ac078793          	addi	a5,a5,-1344 # 800025e0 <__func__.2+0xa0>
    80000b28:	0007a603          	lw	a2,0(a5)
    80000b2c:	0047a683          	lw	a3,4(a5)
    80000b30:	0087a703          	lw	a4,8(a5)
    80000b34:	00c7a783          	lw	a5,12(a5)
    80000b38:	00c52023          	sw	a2,0(a0)
    80000b3c:	00d52223          	sw	a3,4(a0)
    80000b40:	00e52423          	sw	a4,8(a0)
    80000b44:	00f52623          	sw	a5,12(a0)
    80000b48:	00008067          	ret

0000000080000b4c <__am_gpu_fbdraw>:
    80000b4c:	01052783          	lw	a5,16(a0)
    80000b50:	0a078c63          	beqz	a5,80000c08 <__am_gpu_fbdraw+0xbc>
    80000b54:	01452f83          	lw	t6,20(a0)
    80000b58:	0a0f8863          	beqz	t6,80000c08 <__am_gpu_fbdraw+0xbc>
    80000b5c:	00052703          	lw	a4,0(a0)
    80000b60:	19000f13          	li	t5,400
    80000b64:	00853883          	ld	a7,8(a0)
    80000b68:	40ef06bb          	subw	a3,t5,a4
    80000b6c:	00068f13          	mv	t5,a3
    80000b70:	00d7d463          	bge	a5,a3,80000b78 <__am_gpu_fbdraw+0x2c>
    80000b74:	00078f1b          	sext.w	t5,a5
    80000b78:	00452683          	lw	a3,4(a0)
    80000b7c:	19000e13          	li	t3,400
    80000b80:	ffff079b          	addiw	a5,t5,-1
    80000b84:	02de0e3b          	mulw	t3,t3,a3
    80000b88:	02079793          	slli	a5,a5,0x20
    80000b8c:	01e7d793          	srli	a5,a5,0x1e
    80000b90:	00488593          	addi	a1,a7,4
    80000b94:	0a100813          	li	a6,161
    80000b98:	002f1e93          	slli	t4,t5,0x2
    80000b9c:	00b785b3          	add	a1,a5,a1
    80000ba0:	00000313          	li	t1,0
    80000ba4:	01881813          	slli	a6,a6,0x18
    80000ba8:	12c00293          	li	t0,300
    80000bac:	00ee0e3b          	addw	t3,t3,a4
    80000bb0:	05f35063          	bge	t1,t6,80000bf0 <__am_gpu_fbdraw+0xa4>
    80000bb4:	002e1613          	slli	a2,t3,0x2
    80000bb8:	00088793          	mv	a5,a7
    80000bbc:	41160633          	sub	a2,a2,a7
    80000bc0:	01e05e63          	blez	t5,80000bdc <__am_gpu_fbdraw+0x90>
    80000bc4:	0007a683          	lw	a3,0(a5)
    80000bc8:	00f60733          	add	a4,a2,a5
    80000bcc:	00e80733          	add	a4,a6,a4
    80000bd0:	00d72023          	sw	a3,0(a4)
    80000bd4:	00478793          	addi	a5,a5,4
    80000bd8:	feb796e3          	bne	a5,a1,80000bc4 <__am_gpu_fbdraw+0x78>
    80000bdc:	0013031b          	addiw	t1,t1,1
    80000be0:	01d888b3          	add	a7,a7,t4
    80000be4:	190e0e1b          	addiw	t3,t3,400
    80000be8:	01d585b3          	add	a1,a1,t4
    80000bec:	fc5312e3          	bne	t1,t0,80000bb0 <__am_gpu_fbdraw+0x64>
    80000bf0:	01854783          	lbu	a5,24(a0)
    80000bf4:	00078a63          	beqz	a5,80000c08 <__am_gpu_fbdraw+0xbc>
    80000bf8:	00500793          	li	a5,5
    80000bfc:	01d79793          	slli	a5,a5,0x1d
    80000c00:	00100713          	li	a4,1
    80000c04:	10e7a223          	sw	a4,260(a5)
    80000c08:	00008067          	ret

0000000080000c0c <__am_gpu_status>:
    80000c0c:	00100793          	li	a5,1
    80000c10:	00f50023          	sb	a5,0(a0)
    80000c14:	00008067          	ret

0000000080000c18 <__am_audio_init>:
    80000c18:	00008067          	ret

0000000080000c1c <__am_audio_config>:
    80000c1c:	00050023          	sb	zero,0(a0)
    80000c20:	00008067          	ret

0000000080000c24 <__am_audio_ctrl>:
    80000c24:	00008067          	ret

0000000080000c28 <__am_audio_status>:
    80000c28:	00052023          	sw	zero,0(a0)
    80000c2c:	00008067          	ret

0000000080000c30 <__am_audio_play>:
    80000c30:	00008067          	ret

0000000080000c34 <__am_disk_config>:
    80000c34:	00050023          	sb	zero,0(a0)
    80000c38:	00008067          	ret

0000000080000c3c <__am_disk_status>:
    80000c3c:	00008067          	ret

0000000080000c40 <__am_disk_blkio>:
    80000c40:	00008067          	ret

0000000080000c44 <__am_irq_handle>:
    80000c44:	0007d797          	auipc	a5,0x7d
    80000c48:	3cc7b783          	ld	a5,972(a5) # 8007e010 <user_handler>
    80000c4c:	00050593          	mv	a1,a0
    80000c50:	08078a63          	beqz	a5,80000ce4 <__am_irq_handle+0xa0>
    80000c54:	10053683          	ld	a3,256(a0)
    80000c58:	fb010113          	addi	sp,sp,-80
    80000c5c:	04113423          	sd	ra,72(sp)
    80000c60:	02013023          	sd	zero,32(sp)
    80000c64:	02013423          	sd	zero,40(sp)
    80000c68:	02013823          	sd	zero,48(sp)
    80000c6c:	02013c23          	sd	zero,56(sp)
    80000c70:	00b00713          	li	a4,11
    80000c74:	04e68263          	beq	a3,a4,80000cb8 <__am_irq_handle+0x74>
    80000c78:	00400713          	li	a4,4
    80000c7c:	02e12023          	sw	a4,32(sp)
    80000c80:	02013703          	ld	a4,32(sp)
    80000c84:	00010513          	mv	a0,sp
    80000c88:	00e13023          	sd	a4,0(sp)
    80000c8c:	02813703          	ld	a4,40(sp)
    80000c90:	00e13423          	sd	a4,8(sp)
    80000c94:	03013703          	ld	a4,48(sp)
    80000c98:	00e13823          	sd	a4,16(sp)
    80000c9c:	03813703          	ld	a4,56(sp)
    80000ca0:	00e13c23          	sd	a4,24(sp)
    80000ca4:	000780e7          	jalr	a5
    80000ca8:	04050c63          	beqz	a0,80000d00 <__am_irq_handle+0xbc>
    80000cac:	04813083          	ld	ra,72(sp)
    80000cb0:	05010113          	addi	sp,sp,80
    80000cb4:	00008067          	ret
    80000cb8:	08853703          	ld	a4,136(a0)
    80000cbc:	fff00693          	li	a3,-1
    80000cc0:	02d70463          	beq	a4,a3,80000ce8 <__am_irq_handle+0xa4>
    80000cc4:	01300693          	li	a3,19
    80000cc8:	fae6e8e3          	bltu	a3,a4,80000c78 <__am_irq_handle+0x34>
    80000ccc:	11053703          	ld	a4,272(a0)
    80000cd0:	00200693          	li	a3,2
    80000cd4:	02d12023          	sw	a3,32(sp)
    80000cd8:	00470713          	addi	a4,a4,4
    80000cdc:	10e53823          	sd	a4,272(a0)
    80000ce0:	fa1ff06f          	j	80000c80 <__am_irq_handle+0x3c>
    80000ce4:	00008067          	ret
    80000ce8:	11053703          	ld	a4,272(a0)
    80000cec:	00100693          	li	a3,1
    80000cf0:	02d12023          	sw	a3,32(sp)
    80000cf4:	00470713          	addi	a4,a4,4
    80000cf8:	10e53823          	sd	a4,272(a0)
    80000cfc:	f85ff06f          	j	80000c80 <__am_irq_handle+0x3c>
    80000d00:	01a00613          	li	a2,26
    80000d04:	00002597          	auipc	a1,0x2
    80000d08:	8ec58593          	addi	a1,a1,-1812 # 800025f0 <__func__.2+0xb0>
    80000d0c:	00002517          	auipc	a0,0x2
    80000d10:	93450513          	addi	a0,a0,-1740 # 80002640 <__func__.2+0x100>
    80000d14:	2e8000ef          	jal	ra,80000ffc <printf>
    80000d18:	00100513          	li	a0,1
    80000d1c:	c3dff0ef          	jal	ra,80000958 <halt>

0000000080000d20 <cte_init>:
    80000d20:	00050793          	mv	a5,a0
    80000d24:	00000717          	auipc	a4,0x0
    80000d28:	02c70713          	addi	a4,a4,44 # 80000d50 <__am_asm_trap>
    80000d2c:	30571073          	csrw	mtvec,a4
    80000d30:	00100513          	li	a0,1
    80000d34:	0007d717          	auipc	a4,0x7d
    80000d38:	2cf73e23          	sd	a5,732(a4) # 8007e010 <user_handler>
    80000d3c:	00008067          	ret

0000000080000d40 <yield>:
    80000d40:	fff00893          	li	a7,-1
    80000d44:	00000073          	ecall
    80000d48:	00008067          	ret
    80000d4c:	0000                	unimp
	...

0000000080000d50 <__am_asm_trap>:
    80000d50:	ee010113          	addi	sp,sp,-288
    80000d54:	00113423          	sd	ra,8(sp)
    80000d58:	00313c23          	sd	gp,24(sp)
    80000d5c:	02413023          	sd	tp,32(sp)
    80000d60:	02513423          	sd	t0,40(sp)
    80000d64:	02613823          	sd	t1,48(sp)
    80000d68:	02713c23          	sd	t2,56(sp)
    80000d6c:	04813023          	sd	s0,64(sp)
    80000d70:	04913423          	sd	s1,72(sp)
    80000d74:	04a13823          	sd	a0,80(sp)
    80000d78:	04b13c23          	sd	a1,88(sp)
    80000d7c:	06c13023          	sd	a2,96(sp)
    80000d80:	06d13423          	sd	a3,104(sp)
    80000d84:	06e13823          	sd	a4,112(sp)
    80000d88:	06f13c23          	sd	a5,120(sp)
    80000d8c:	09013023          	sd	a6,128(sp)
    80000d90:	09113423          	sd	a7,136(sp)
    80000d94:	09213823          	sd	s2,144(sp)
    80000d98:	09313c23          	sd	s3,152(sp)
    80000d9c:	0b413023          	sd	s4,160(sp)
    80000da0:	0b513423          	sd	s5,168(sp)
    80000da4:	0b613823          	sd	s6,176(sp)
    80000da8:	0b713c23          	sd	s7,184(sp)
    80000dac:	0d813023          	sd	s8,192(sp)
    80000db0:	0d913423          	sd	s9,200(sp)
    80000db4:	0da13823          	sd	s10,208(sp)
    80000db8:	0db13c23          	sd	s11,216(sp)
    80000dbc:	0fc13023          	sd	t3,224(sp)
    80000dc0:	0fd13423          	sd	t4,232(sp)
    80000dc4:	0fe13823          	sd	t5,240(sp)
    80000dc8:	0ff13c23          	sd	t6,248(sp)
    80000dcc:	342022f3          	csrr	t0,mcause
    80000dd0:	30002373          	csrr	t1,mstatus
    80000dd4:	341023f3          	csrr	t2,mepc
    80000dd8:	10513023          	sd	t0,256(sp)
    80000ddc:	10613423          	sd	t1,264(sp)
    80000de0:	10713823          	sd	t2,272(sp)
    80000de4:	00020537          	lui	a0,0x20
    80000de8:	00a36333          	or	t1,t1,a0
    80000dec:	30031073          	csrw	mstatus,t1
    80000df0:	00010513          	mv	a0,sp
    80000df4:	e51ff0ef          	jal	ra,80000c44 <__am_irq_handle>
    80000df8:	10813303          	ld	t1,264(sp)
    80000dfc:	11013383          	ld	t2,272(sp)
    80000e00:	30031073          	csrw	mstatus,t1
    80000e04:	34139073          	csrw	mepc,t2
    80000e08:	00813083          	ld	ra,8(sp)
    80000e0c:	01813183          	ld	gp,24(sp)
    80000e10:	02013203          	ld	tp,32(sp)
    80000e14:	02813283          	ld	t0,40(sp)
    80000e18:	03013303          	ld	t1,48(sp)
    80000e1c:	03813383          	ld	t2,56(sp)
    80000e20:	04013403          	ld	s0,64(sp)
    80000e24:	04813483          	ld	s1,72(sp)
    80000e28:	05013503          	ld	a0,80(sp)
    80000e2c:	05813583          	ld	a1,88(sp)
    80000e30:	06013603          	ld	a2,96(sp)
    80000e34:	06813683          	ld	a3,104(sp)
    80000e38:	07013703          	ld	a4,112(sp)
    80000e3c:	07813783          	ld	a5,120(sp)
    80000e40:	08013803          	ld	a6,128(sp)
    80000e44:	08813883          	ld	a7,136(sp)
    80000e48:	09013903          	ld	s2,144(sp)
    80000e4c:	09813983          	ld	s3,152(sp)
    80000e50:	0a013a03          	ld	s4,160(sp)
    80000e54:	0a813a83          	ld	s5,168(sp)
    80000e58:	0b013b03          	ld	s6,176(sp)
    80000e5c:	0b813b83          	ld	s7,184(sp)
    80000e60:	0c013c03          	ld	s8,192(sp)
    80000e64:	0c813c83          	ld	s9,200(sp)
    80000e68:	0d013d03          	ld	s10,208(sp)
    80000e6c:	0d813d83          	ld	s11,216(sp)
    80000e70:	0e013e03          	ld	t3,224(sp)
    80000e74:	0e813e83          	ld	t4,232(sp)
    80000e78:	0f013f03          	ld	t5,240(sp)
    80000e7c:	0f813f83          	ld	t6,248(sp)
    80000e80:	12010113          	addi	sp,sp,288
    80000e84:	30200073          	mret
    80000e88:	0000                	unimp
	...

0000000080000e8c <memset>:
    80000e8c:	0ff5f593          	zext.b	a1,a1
    80000e90:	00c50733          	add	a4,a0,a2
    80000e94:	00050793          	mv	a5,a0
    80000e98:	00060863          	beqz	a2,80000ea8 <memset+0x1c>
    80000e9c:	00178793          	addi	a5,a5,1
    80000ea0:	feb78fa3          	sb	a1,-1(a5)
    80000ea4:	fee79ce3          	bne	a5,a4,80000e9c <memset+0x10>
    80000ea8:	00008067          	ret

0000000080000eac <memcpy>:
    80000eac:	02060063          	beqz	a2,80000ecc <memcpy+0x20>
    80000eb0:	00c50633          	add	a2,a0,a2
    80000eb4:	00050793          	mv	a5,a0
    80000eb8:	0005c703          	lbu	a4,0(a1)
    80000ebc:	00178793          	addi	a5,a5,1
    80000ec0:	00158593          	addi	a1,a1,1
    80000ec4:	fee78fa3          	sb	a4,-1(a5)
    80000ec8:	fec798e3          	bne	a5,a2,80000eb8 <memcpy+0xc>
    80000ecc:	00008067          	ret

0000000080000ed0 <printNum.part.0>:
    80000ed0:	fc010113          	addi	sp,sp,-64
    80000ed4:	02813823          	sd	s0,48(sp)
    80000ed8:	02913423          	sd	s1,40(sp)
    80000edc:	02113c23          	sd	ra,56(sp)
    80000ee0:	03213023          	sd	s2,32(sp)
    80000ee4:	01313c23          	sd	s3,24(sp)
    80000ee8:	01413823          	sd	s4,16(sp)
    80000eec:	01513423          	sd	s5,8(sp)
    80000ef0:	00050493          	mv	s1,a0
    80000ef4:	00058413          	mv	s0,a1
    80000ef8:	04b57a63          	bgeu	a0,a1,80000f4c <printNum.part.0+0x7c>
    80000efc:	00001917          	auipc	s2,0x1
    80000f00:	76490913          	addi	s2,s2,1892 # 80002660 <__func__.2+0x120>
    80000f04:	0007d997          	auipc	s3,0x7d
    80000f08:	11498993          	addi	s3,s3,276 # 8007e018 <printf_count>
    80000f0c:	0284f433          	remu	s0,s1,s0
    80000f10:	00890433          	add	s0,s2,s0
    80000f14:	00044503          	lbu	a0,0(s0)
    80000f18:	a31ff0ef          	jal	ra,80000948 <putch>
    80000f1c:	0009a783          	lw	a5,0(s3)
    80000f20:	03813083          	ld	ra,56(sp)
    80000f24:	03013403          	ld	s0,48(sp)
    80000f28:	0017879b          	addiw	a5,a5,1
    80000f2c:	00f9a023          	sw	a5,0(s3)
    80000f30:	02813483          	ld	s1,40(sp)
    80000f34:	02013903          	ld	s2,32(sp)
    80000f38:	01813983          	ld	s3,24(sp)
    80000f3c:	01013a03          	ld	s4,16(sp)
    80000f40:	00813a83          	ld	s5,8(sp)
    80000f44:	04010113          	addi	sp,sp,64
    80000f48:	00008067          	ret
    80000f4c:	02b55a33          	divu	s4,a0,a1
    80000f50:	02ba7a63          	bgeu	s4,a1,80000f84 <printNum.part.0+0xb4>
    80000f54:	00001917          	auipc	s2,0x1
    80000f58:	70c90913          	addi	s2,s2,1804 # 80002660 <__func__.2+0x120>
    80000f5c:	0007d997          	auipc	s3,0x7d
    80000f60:	0bc98993          	addi	s3,s3,188 # 8007e018 <printf_count>
    80000f64:	028a7a33          	remu	s4,s4,s0
    80000f68:	01490a33          	add	s4,s2,s4
    80000f6c:	000a4503          	lbu	a0,0(s4)
    80000f70:	9d9ff0ef          	jal	ra,80000948 <putch>
    80000f74:	0009a783          	lw	a5,0(s3)
    80000f78:	0017879b          	addiw	a5,a5,1
    80000f7c:	00f9a023          	sw	a5,0(s3)
    80000f80:	f8dff06f          	j	80000f0c <printNum.part.0+0x3c>
    80000f84:	02ba5ab3          	divu	s5,s4,a1
    80000f88:	02bafa63          	bgeu	s5,a1,80000fbc <printNum.part.0+0xec>
    80000f8c:	00001917          	auipc	s2,0x1
    80000f90:	6d490913          	addi	s2,s2,1748 # 80002660 <__func__.2+0x120>
    80000f94:	0007d997          	auipc	s3,0x7d
    80000f98:	08498993          	addi	s3,s3,132 # 8007e018 <printf_count>
    80000f9c:	028afab3          	remu	s5,s5,s0
    80000fa0:	01590ab3          	add	s5,s2,s5
    80000fa4:	000ac503          	lbu	a0,0(s5)
    80000fa8:	9a1ff0ef          	jal	ra,80000948 <putch>
    80000fac:	0009a783          	lw	a5,0(s3)
    80000fb0:	0017879b          	addiw	a5,a5,1
    80000fb4:	00f9a023          	sw	a5,0(s3)
    80000fb8:	fadff06f          	j	80000f64 <printNum.part.0+0x94>
    80000fbc:	02bad933          	divu	s2,s5,a1
    80000fc0:	00b96663          	bltu	s2,a1,80000fcc <printNum.part.0+0xfc>
    80000fc4:	02b95533          	divu	a0,s2,a1
    80000fc8:	f09ff0ef          	jal	ra,80000ed0 <printNum.part.0>
    80000fcc:	028977b3          	remu	a5,s2,s0
    80000fd0:	00001917          	auipc	s2,0x1
    80000fd4:	69090913          	addi	s2,s2,1680 # 80002660 <__func__.2+0x120>
    80000fd8:	0007d997          	auipc	s3,0x7d
    80000fdc:	04098993          	addi	s3,s3,64 # 8007e018 <printf_count>
    80000fe0:	00f907b3          	add	a5,s2,a5
    80000fe4:	0007c503          	lbu	a0,0(a5)
    80000fe8:	961ff0ef          	jal	ra,80000948 <putch>
    80000fec:	0009a783          	lw	a5,0(s3)
    80000ff0:	0017879b          	addiw	a5,a5,1
    80000ff4:	00f9a023          	sw	a5,0(s3)
    80000ff8:	fa5ff06f          	j	80000f9c <printNum.part.0+0xcc>

0000000080000ffc <printf>:
    80000ffc:	f3010113          	addi	sp,sp,-208
    80001000:	08813023          	sd	s0,128(sp)
    80001004:	03b13423          	sd	s11,40(sp)
    80001008:	00050413          	mv	s0,a0
    8000100c:	08113423          	sd	ra,136(sp)
    80001010:	06913c23          	sd	s1,120(sp)
    80001014:	07213823          	sd	s2,112(sp)
    80001018:	07313423          	sd	s3,104(sp)
    8000101c:	07413023          	sd	s4,96(sp)
    80001020:	05513c23          	sd	s5,88(sp)
    80001024:	05613823          	sd	s6,80(sp)
    80001028:	05713423          	sd	s7,72(sp)
    8000102c:	05813023          	sd	s8,64(sp)
    80001030:	03913c23          	sd	s9,56(sp)
    80001034:	03a13823          	sd	s10,48(sp)
    80001038:	0007d517          	auipc	a0,0x7d
    8000103c:	fe052023          	sw	zero,-32(a0) # 8007e018 <printf_count>
    80001040:	00044503          	lbu	a0,0(s0)
    80001044:	0af13c23          	sd	a5,184(sp)
    80001048:	09810793          	addi	a5,sp,152
    8000104c:	08b13c23          	sd	a1,152(sp)
    80001050:	0ac13023          	sd	a2,160(sp)
    80001054:	0ad13423          	sd	a3,168(sp)
    80001058:	0ae13823          	sd	a4,176(sp)
    8000105c:	0d013023          	sd	a6,192(sp)
    80001060:	0d113423          	sd	a7,200(sp)
    80001064:	00f13c23          	sd	a5,24(sp)
    80001068:	0007dd97          	auipc	s11,0x7d
    8000106c:	fb0d8d93          	addi	s11,s11,-80 # 8007e018 <printf_count>
    80001070:	0c050a63          	beqz	a0,80001144 <printf+0x148>
    80001074:	00000c93          	li	s9,0
    80001078:	02500493          	li	s1,37
    8000107c:	01500993          	li	s3,21
    80001080:	00001917          	auipc	s2,0x1
    80001084:	5f490913          	addi	s2,s2,1524 # 80002674 <__func__.2+0x134>
    80001088:	00900b93          	li	s7,9
    8000108c:	00001a17          	auipc	s4,0x1
    80001090:	5d4a0a13          	addi	s4,s4,1492 # 80002660 <__func__.2+0x120>
    80001094:	00a00a93          	li	s5,10
    80001098:	06300c13          	li	s8,99
    8000109c:	00f00b13          	li	s6,15
    800010a0:	001c8d1b          	addiw	s10,s9,1
    800010a4:	1a951663          	bne	a0,s1,80001250 <printf+0x254>
    800010a8:	01a40d33          	add	s10,s0,s10
    800010ac:	000d4783          	lbu	a5,0(s10)
    800010b0:	f9d7879b          	addiw	a5,a5,-99
    800010b4:	0ff7f793          	zext.b	a5,a5
    800010b8:	06f9ee63          	bltu	s3,a5,80001134 <printf+0x138>
    800010bc:	00279793          	slli	a5,a5,0x2
    800010c0:	012787b3          	add	a5,a5,s2
    800010c4:	0007a783          	lw	a5,0(a5)
    800010c8:	012787b3          	add	a5,a5,s2
    800010cc:	00078067          	jr	a5
    800010d0:	01813783          	ld	a5,24(sp)
    800010d4:	0007ad03          	lw	s10,0(a5)
    800010d8:	00878793          	addi	a5,a5,8
    800010dc:	00f13c23          	sd	a5,24(sp)
    800010e0:	0e0d0663          	beqz	s10,800011cc <printf+0x1d0>
    800010e4:	03ab7a63          	bgeu	s6,s10,80001118 <printf+0x11c>
    800010e8:	020d1793          	slli	a5,s10,0x20
    800010ec:	0ff00713          	li	a4,255
    800010f0:	0207d793          	srli	a5,a5,0x20
    800010f4:	1ba76463          	bltu	a4,s10,8000129c <printf+0x2a0>
    800010f8:	0047d793          	srli	a5,a5,0x4
    800010fc:	00f7f793          	andi	a5,a5,15
    80001100:	00fa07b3          	add	a5,s4,a5
    80001104:	0007c503          	lbu	a0,0(a5)
    80001108:	841ff0ef          	jal	ra,80000948 <putch>
    8000110c:	000da783          	lw	a5,0(s11)
    80001110:	0017879b          	addiw	a5,a5,1
    80001114:	00fda023          	sw	a5,0(s11)
    80001118:	00fd7d13          	andi	s10,s10,15
    8000111c:	01aa0d33          	add	s10,s4,s10
    80001120:	000d4503          	lbu	a0,0(s10)
    80001124:	825ff0ef          	jal	ra,80000948 <putch>
    80001128:	000da783          	lw	a5,0(s11)
    8000112c:	0017879b          	addiw	a5,a5,1
    80001130:	00fda023          	sw	a5,0(s11)
    80001134:	002c8c9b          	addiw	s9,s9,2
    80001138:	019407b3          	add	a5,s0,s9
    8000113c:	0007c503          	lbu	a0,0(a5)
    80001140:	f60510e3          	bnez	a0,800010a0 <printf+0xa4>
    80001144:	08813083          	ld	ra,136(sp)
    80001148:	08013403          	ld	s0,128(sp)
    8000114c:	000da503          	lw	a0,0(s11)
    80001150:	07813483          	ld	s1,120(sp)
    80001154:	07013903          	ld	s2,112(sp)
    80001158:	06813983          	ld	s3,104(sp)
    8000115c:	06013a03          	ld	s4,96(sp)
    80001160:	05813a83          	ld	s5,88(sp)
    80001164:	05013b03          	ld	s6,80(sp)
    80001168:	04813b83          	ld	s7,72(sp)
    8000116c:	04013c03          	ld	s8,64(sp)
    80001170:	03813c83          	ld	s9,56(sp)
    80001174:	03013d03          	ld	s10,48(sp)
    80001178:	02813d83          	ld	s11,40(sp)
    8000117c:	0d010113          	addi	sp,sp,208
    80001180:	00008067          	ret
    80001184:	01813783          	ld	a5,24(sp)
    80001188:	0007ad03          	lw	s10,0(a5)
    8000118c:	00878793          	addi	a5,a5,8
    80001190:	00f13c23          	sd	a5,24(sp)
    80001194:	120d4063          	bltz	s10,800012b4 <printf+0x2b8>
    80001198:	020d0a63          	beqz	s10,800011cc <printf+0x1d0>
    8000119c:	03abd463          	bge	s7,s10,800011c4 <printf+0x1c8>
    800011a0:	035d57b3          	divu	a5,s10,s5
    800011a4:	0dac4263          	blt	s8,s10,80001268 <printf+0x26c>
    800011a8:	0357f7b3          	remu	a5,a5,s5
    800011ac:	00fa07b3          	add	a5,s4,a5
    800011b0:	0007c503          	lbu	a0,0(a5)
    800011b4:	f94ff0ef          	jal	ra,80000948 <putch>
    800011b8:	000da783          	lw	a5,0(s11)
    800011bc:	0017879b          	addiw	a5,a5,1
    800011c0:	00fda023          	sw	a5,0(s11)
    800011c4:	035d7d33          	remu	s10,s10,s5
    800011c8:	f55ff06f          	j	8000111c <printf+0x120>
    800011cc:	03000513          	li	a0,48
    800011d0:	f78ff0ef          	jal	ra,80000948 <putch>
    800011d4:	f61ff06f          	j	80001134 <printf+0x138>
    800011d8:	01813783          	ld	a5,24(sp)
    800011dc:	0007bd03          	ld	s10,0(a5)
    800011e0:	00878793          	addi	a5,a5,8
    800011e4:	00f13c23          	sd	a5,24(sp)
    800011e8:	000d4503          	lbu	a0,0(s10)
    800011ec:	001d0d13          	addi	s10,s10,1
    800011f0:	f40502e3          	beqz	a0,80001134 <printf+0x138>
    800011f4:	f54ff0ef          	jal	ra,80000948 <putch>
    800011f8:	000da783          	lw	a5,0(s11)
    800011fc:	001d0d13          	addi	s10,s10,1
    80001200:	0017879b          	addiw	a5,a5,1
    80001204:	00fda023          	sw	a5,0(s11)
    80001208:	fffd4503          	lbu	a0,-1(s10)
    8000120c:	fe0514e3          	bnez	a0,800011f4 <printf+0x1f8>
    80001210:	f25ff06f          	j	80001134 <printf+0x138>
    80001214:	01813783          	ld	a5,24(sp)
    80001218:	0007ad03          	lw	s10,0(a5)
    8000121c:	00878793          	addi	a5,a5,8
    80001220:	00f13c23          	sd	a5,24(sp)
    80001224:	f60d5ae3          	bgez	s10,80001198 <printf+0x19c>
    80001228:	02d00513          	li	a0,45
    8000122c:	f1cff0ef          	jal	ra,80000948 <putch>
    80001230:	41a00d3b          	negw	s10,s10
    80001234:	f69ff06f          	j	8000119c <printf+0x1a0>
    80001238:	01813783          	ld	a5,24(sp)
    8000123c:	0007c503          	lbu	a0,0(a5)
    80001240:	00878793          	addi	a5,a5,8
    80001244:	00f13c23          	sd	a5,24(sp)
    80001248:	f00ff0ef          	jal	ra,80000948 <putch>
    8000124c:	ee9ff06f          	j	80001134 <printf+0x138>
    80001250:	ef8ff0ef          	jal	ra,80000948 <putch>
    80001254:	000da783          	lw	a5,0(s11)
    80001258:	000d0c93          	mv	s9,s10
    8000125c:	0017879b          	addiw	a5,a5,1
    80001260:	00fda023          	sw	a5,0(s11)
    80001264:	ed5ff06f          	j	80001138 <printf+0x13c>
    80001268:	0357d533          	divu	a0,a5,s5
    8000126c:	00a00593          	li	a1,10
    80001270:	00f13423          	sd	a5,8(sp)
    80001274:	c5dff0ef          	jal	ra,80000ed0 <printNum.part.0>
    80001278:	00813783          	ld	a5,8(sp)
    8000127c:	0357f7b3          	remu	a5,a5,s5
    80001280:	00fa07b3          	add	a5,s4,a5
    80001284:	0007c503          	lbu	a0,0(a5)
    80001288:	ec0ff0ef          	jal	ra,80000948 <putch>
    8000128c:	000da783          	lw	a5,0(s11)
    80001290:	0017879b          	addiw	a5,a5,1
    80001294:	00fda023          	sw	a5,0(s11)
    80001298:	f2dff06f          	j	800011c4 <printf+0x1c8>
    8000129c:	0087d513          	srli	a0,a5,0x8
    800012a0:	01000593          	li	a1,16
    800012a4:	00f13423          	sd	a5,8(sp)
    800012a8:	c29ff0ef          	jal	ra,80000ed0 <printNum.part.0>
    800012ac:	00813783          	ld	a5,8(sp)
    800012b0:	e49ff06f          	j	800010f8 <printf+0xfc>
    800012b4:	02d00513          	li	a0,45
    800012b8:	e90ff0ef          	jal	ra,80000948 <putch>
    800012bc:	41a00d33          	neg	s10,s10
    800012c0:	eddff06f          	j	8000119c <printf+0x1a0>
