
/home/xuhao/learngit/ysyx-workbench/nanos-lite/build/nanos-lite-riscv64-nemu.elf：     文件格式 elf64-littleriscv


Disassembly of section .text:

0000000080000000 <_start>:
    80000000:	00000413          	li	s0,0
    80000004:	001e0117          	auipc	sp,0x1e0
    80000008:	ffc10113          	addi	sp,sp,-4 # 801e0000 <_end>
    8000000c:	535000ef          	jal	ra,80000d40 <_trm_init>

0000000080000010 <invalid_read>:
    80000010:	ff010113          	addi	sp,sp,-16
    80000014:	00002697          	auipc	a3,0x2
    80000018:	fdc68693          	addi	a3,a3,-36 # 80001ff0 <__func__.4>
    8000001c:	01100613          	li	a2,17
    80000020:	00002597          	auipc	a1,0x2
    80000024:	b2858593          	addi	a1,a1,-1240 # 80001b48 <_etext>
    80000028:	00002517          	auipc	a0,0x2
    8000002c:	b5850513          	addi	a0,a0,-1192 # 80001b80 <_etext+0x38>
    80000030:	00113423          	sd	ra,8(sp)
    80000034:	420010ef          	jal	ra,80001454 <printf>
    80000038:	00100513          	li	a0,1
    8000003c:	4f9000ef          	jal	ra,80000d34 <halt>

0000000080000040 <invalid_write>:
    80000040:	ff010113          	addi	sp,sp,-16
    80000044:	00002697          	auipc	a3,0x2
    80000048:	f9c68693          	addi	a3,a3,-100 # 80001fe0 <__func__.3>
    8000004c:	01600613          	li	a2,22
    80000050:	00002597          	auipc	a1,0x2
    80000054:	af858593          	addi	a1,a1,-1288 # 80001b48 <_etext>
    80000058:	00002517          	auipc	a0,0x2
    8000005c:	b2850513          	addi	a0,a0,-1240 # 80001b80 <_etext+0x38>
    80000060:	00113423          	sd	ra,8(sp)
    80000064:	3f0010ef          	jal	ra,80001454 <printf>
    80000068:	00100513          	li	a0,1
    8000006c:	4c9000ef          	jal	ra,80000d34 <halt>

0000000080000070 <init_fs>:
    80000070:	ff010113          	addi	sp,sp,-16
    80000074:	00813023          	sd	s0,0(sp)
    80000078:	00075437          	lui	s0,0x75
    8000007c:	30040513          	addi	a0,s0,768 # 75300 <_entry_offset+0x75300>
    80000080:	00113423          	sd	ra,8(sp)
    80000084:	254010ef          	jal	ra,800012d8 <malloc>
    80000088:	30040713          	addi	a4,s0,768
    8000008c:	00050793          	mv	a5,a0
    80000090:	001d7697          	auipc	a3,0x1d7
    80000094:	f6a6b823          	sd	a0,-144(a3) # 801d7000 <fb_canva>
    80000098:	00e50733          	add	a4,a0,a4
    8000009c:	0007a023          	sw	zero,0(a5)
    800000a0:	00478793          	addi	a5,a5,4
    800000a4:	fee79ce3          	bne	a5,a4,8000009c <init_fs+0x2c>
    800000a8:	00813083          	ld	ra,8(sp)
    800000ac:	00013403          	ld	s0,0(sp)
    800000b0:	01010113          	addi	sp,sp,16
    800000b4:	00008067          	ret

00000000800000b8 <fs_open>:
    800000b8:	fe010113          	addi	sp,sp,-32
    800000bc:	00813823          	sd	s0,16(sp)
    800000c0:	00913423          	sd	s1,8(sp)
    800000c4:	01213023          	sd	s2,0(sp)
    800000c8:	00113c23          	sd	ra,24(sp)
    800000cc:	00050913          	mv	s2,a0
    800000d0:	001d7797          	auipc	a5,0x1d7
    800000d4:	f207bc23          	sd	zero,-200(a5) # 801d7008 <seek_offset>
    800000d8:	001cd417          	auipc	s0,0x1cd
    800000dc:	0b040413          	addi	s0,s0,176 # 801cd188 <file_table>
    800000e0:	00000493          	li	s1,0
    800000e4:	0080006f          	j	800000ec <fs_open+0x34>
    800000e8:	0014849b          	addiw	s1,s1,1
    800000ec:	00043503          	ld	a0,0(s0)
    800000f0:	00090593          	mv	a1,s2
    800000f4:	02840413          	addi	s0,s0,40
    800000f8:	174010ef          	jal	ra,8000126c <strcmp>
    800000fc:	fe0516e3          	bnez	a0,800000e8 <fs_open+0x30>
    80000100:	00048793          	mv	a5,s1
    80000104:	00090713          	mv	a4,s2
    80000108:	00003697          	auipc	a3,0x3
    8000010c:	25868693          	addi	a3,a3,600 # 80003360 <__func__.2>
    80000110:	03100613          	li	a2,49
    80000114:	00002597          	auipc	a1,0x2
    80000118:	a3458593          	addi	a1,a1,-1484 # 80001b48 <_etext>
    8000011c:	00002517          	auipc	a0,0x2
    80000120:	aac50513          	addi	a0,a0,-1364 # 80001bc8 <_etext+0x80>
    80000124:	330010ef          	jal	ra,80001454 <printf>
    80000128:	01813083          	ld	ra,24(sp)
    8000012c:	01013403          	ld	s0,16(sp)
    80000130:	00013903          	ld	s2,0(sp)
    80000134:	00048513          	mv	a0,s1
    80000138:	00813483          	ld	s1,8(sp)
    8000013c:	02010113          	addi	sp,sp,32
    80000140:	00008067          	ret

0000000080000144 <fs_read1>:
    80000144:	00251793          	slli	a5,a0,0x2
    80000148:	00a787b3          	add	a5,a5,a0
    8000014c:	00379793          	slli	a5,a5,0x3
    80000150:	001cd517          	auipc	a0,0x1cd
    80000154:	03850513          	addi	a0,a0,56 # 801cd188 <file_table>
    80000158:	00f507b3          	add	a5,a0,a5
    8000015c:	0107b783          	ld	a5,16(a5)
    80000160:	00058513          	mv	a0,a1
    80000164:	001d7597          	auipc	a1,0x1d7
    80000168:	ea45b583          	ld	a1,-348(a1) # 801d7008 <seek_offset>
    8000016c:	ff010113          	addi	sp,sp,-16
    80000170:	00b785b3          	add	a1,a5,a1
    80000174:	00813023          	sd	s0,0(sp)
    80000178:	00113423          	sd	ra,8(sp)
    8000017c:	00060413          	mv	s0,a2
    80000180:	279000ef          	jal	ra,80000bf8 <ramdisk_read>
    80000184:	00813083          	ld	ra,8(sp)
    80000188:	00040513          	mv	a0,s0
    8000018c:	00013403          	ld	s0,0(sp)
    80000190:	01010113          	addi	sp,sp,16
    80000194:	00008067          	ret

0000000080000198 <fs_read>:
    80000198:	00251793          	slli	a5,a0,0x2
    8000019c:	00a787b3          	add	a5,a5,a0
    800001a0:	00379793          	slli	a5,a5,0x3
    800001a4:	001cd517          	auipc	a0,0x1cd
    800001a8:	fe450513          	addi	a0,a0,-28 # 801cd188 <file_table>
    800001ac:	00f507b3          	add	a5,a0,a5
    800001b0:	0187b703          	ld	a4,24(a5)
    800001b4:	00058513          	mv	a0,a1
    800001b8:	00070663          	beqz	a4,800001c4 <fs_read+0x2c>
    800001bc:	00000593          	li	a1,0
    800001c0:	00070067          	jr	a4
    800001c4:	fe010113          	addi	sp,sp,-32
    800001c8:	00913423          	sd	s1,8(sp)
    800001cc:	001d7497          	auipc	s1,0x1d7
    800001d0:	e3c48493          	addi	s1,s1,-452 # 801d7008 <seek_offset>
    800001d4:	0107b583          	ld	a1,16(a5)
    800001d8:	0004b783          	ld	a5,0(s1)
    800001dc:	00813823          	sd	s0,16(sp)
    800001e0:	00113c23          	sd	ra,24(sp)
    800001e4:	00f585b3          	add	a1,a1,a5
    800001e8:	00060413          	mv	s0,a2
    800001ec:	20d000ef          	jal	ra,80000bf8 <ramdisk_read>
    800001f0:	0004b783          	ld	a5,0(s1)
    800001f4:	01813083          	ld	ra,24(sp)
    800001f8:	00040513          	mv	a0,s0
    800001fc:	008787b3          	add	a5,a5,s0
    80000200:	01013403          	ld	s0,16(sp)
    80000204:	00f4b023          	sd	a5,0(s1)
    80000208:	00813483          	ld	s1,8(sp)
    8000020c:	02010113          	addi	sp,sp,32
    80000210:	00008067          	ret

0000000080000214 <fs_write>:
    80000214:	00251793          	slli	a5,a0,0x2
    80000218:	00a787b3          	add	a5,a5,a0
    8000021c:	00379793          	slli	a5,a5,0x3
    80000220:	001cd517          	auipc	a0,0x1cd
    80000224:	f6850513          	addi	a0,a0,-152 # 801cd188 <file_table>
    80000228:	00f507b3          	add	a5,a0,a5
    8000022c:	0207b703          	ld	a4,32(a5)
    80000230:	fe010113          	addi	sp,sp,-32
    80000234:	00813823          	sd	s0,16(sp)
    80000238:	00113c23          	sd	ra,24(sp)
    8000023c:	00913423          	sd	s1,8(sp)
    80000240:	00058513          	mv	a0,a1
    80000244:	00060413          	mv	s0,a2
    80000248:	06070263          	beqz	a4,800002ac <fs_write+0x98>
    8000024c:	00000797          	auipc	a5,0x0
    80000250:	34078793          	addi	a5,a5,832 # 8000058c <fb_write>
    80000254:	02f70263          	beq	a4,a5,80000278 <fs_write+0x64>
    80000258:	00000593          	li	a1,0
    8000025c:	000700e7          	jalr	a4
    80000260:	01813083          	ld	ra,24(sp)
    80000264:	00040513          	mv	a0,s0
    80000268:	01013403          	ld	s0,16(sp)
    8000026c:	00813483          	ld	s1,8(sp)
    80000270:	02010113          	addi	sp,sp,32
    80000274:	00008067          	ret
    80000278:	001d7497          	auipc	s1,0x1d7
    8000027c:	d9048493          	addi	s1,s1,-624 # 801d7008 <seek_offset>
    80000280:	0004b583          	ld	a1,0(s1)
    80000284:	308000ef          	jal	ra,8000058c <fb_write>
    80000288:	0004b783          	ld	a5,0(s1)
    8000028c:	01813083          	ld	ra,24(sp)
    80000290:	00040513          	mv	a0,s0
    80000294:	008787b3          	add	a5,a5,s0
    80000298:	01013403          	ld	s0,16(sp)
    8000029c:	00f4b023          	sd	a5,0(s1)
    800002a0:	00813483          	ld	s1,8(sp)
    800002a4:	02010113          	addi	sp,sp,32
    800002a8:	00008067          	ret
    800002ac:	001d7497          	auipc	s1,0x1d7
    800002b0:	d5c48493          	addi	s1,s1,-676 # 801d7008 <seek_offset>
    800002b4:	0107b583          	ld	a1,16(a5)
    800002b8:	0004b783          	ld	a5,0(s1)
    800002bc:	00f585b3          	add	a1,a1,a5
    800002c0:	1b1000ef          	jal	ra,80000c70 <ramdisk_write>
    800002c4:	0004b783          	ld	a5,0(s1)
    800002c8:	008787b3          	add	a5,a5,s0
    800002cc:	00f4b023          	sd	a5,0(s1)
    800002d0:	f91ff06f          	j	80000260 <fs_write+0x4c>

00000000800002d4 <fs_lseek>:
    800002d4:	00061a63          	bnez	a2,800002e8 <fs_lseek+0x14>
    800002d8:	001d7797          	auipc	a5,0x1d7
    800002dc:	d2b7b823          	sd	a1,-720(a5) # 801d7008 <seek_offset>
    800002e0:	00058513          	mv	a0,a1
    800002e4:	00008067          	ret
    800002e8:	00100793          	li	a5,1
    800002ec:	02f60c63          	beq	a2,a5,80000324 <fs_lseek+0x50>
    800002f0:	00200793          	li	a5,2
    800002f4:	04f61e63          	bne	a2,a5,80000350 <fs_lseek+0x7c>
    800002f8:	00251793          	slli	a5,a0,0x2
    800002fc:	00a78533          	add	a0,a5,a0
    80000300:	00351513          	slli	a0,a0,0x3
    80000304:	001cd797          	auipc	a5,0x1cd
    80000308:	e8478793          	addi	a5,a5,-380 # 801cd188 <file_table>
    8000030c:	00a78533          	add	a0,a5,a0
    80000310:	00853503          	ld	a0,8(a0)
    80000314:	00a58533          	add	a0,a1,a0
    80000318:	001d7797          	auipc	a5,0x1d7
    8000031c:	cea7b823          	sd	a0,-784(a5) # 801d7008 <seek_offset>
    80000320:	00008067          	ret
    80000324:	00251793          	slli	a5,a0,0x2
    80000328:	00a78533          	add	a0,a5,a0
    8000032c:	00351513          	slli	a0,a0,0x3
    80000330:	001cd797          	auipc	a5,0x1cd
    80000334:	e5878793          	addi	a5,a5,-424 # 801cd188 <file_table>
    80000338:	00a78533          	add	a0,a5,a0
    8000033c:	01053503          	ld	a0,16(a0)
    80000340:	00a58533          	add	a0,a1,a0
    80000344:	001d7797          	auipc	a5,0x1d7
    80000348:	cca7b223          	sd	a0,-828(a5) # 801d7008 <seek_offset>
    8000034c:	00008067          	ret
    80000350:	ff010113          	addi	sp,sp,-16
    80000354:	00002717          	auipc	a4,0x2
    80000358:	8a470713          	addi	a4,a4,-1884 # 80001bf8 <_etext+0xb0>
    8000035c:	00002697          	auipc	a3,0x2
    80000360:	c7468693          	addi	a3,a3,-908 # 80001fd0 <__func__.1>
    80000364:	06700613          	li	a2,103
    80000368:	00001597          	auipc	a1,0x1
    8000036c:	7e058593          	addi	a1,a1,2016 # 80001b48 <_etext>
    80000370:	00002517          	auipc	a0,0x2
    80000374:	89050513          	addi	a0,a0,-1904 # 80001c00 <_etext+0xb8>
    80000378:	00113423          	sd	ra,8(sp)
    8000037c:	0d8010ef          	jal	ra,80001454 <printf>
    80000380:	00100513          	li	a0,1
    80000384:	1b1000ef          	jal	ra,80000d34 <halt>

0000000080000388 <fs_lseek1>:
    80000388:	02061863          	bnez	a2,800003b8 <fs_lseek1+0x30>
    8000038c:	00251793          	slli	a5,a0,0x2
    80000390:	00a78533          	add	a0,a5,a0
    80000394:	00351513          	slli	a0,a0,0x3
    80000398:	001cd797          	auipc	a5,0x1cd
    8000039c:	df078793          	addi	a5,a5,-528 # 801cd188 <file_table>
    800003a0:	00a78533          	add	a0,a5,a0
    800003a4:	01053503          	ld	a0,16(a0)
    800003a8:	40a58533          	sub	a0,a1,a0
    800003ac:	001d7797          	auipc	a5,0x1d7
    800003b0:	c4a7be23          	sd	a0,-932(a5) # 801d7008 <seek_offset>
    800003b4:	00008067          	ret
    800003b8:	00100793          	li	a5,1
    800003bc:	02f60c63          	beq	a2,a5,800003f4 <fs_lseek1+0x6c>
    800003c0:	00200793          	li	a5,2
    800003c4:	04f61063          	bne	a2,a5,80000404 <fs_lseek1+0x7c>
    800003c8:	00251793          	slli	a5,a0,0x2
    800003cc:	00a78533          	add	a0,a5,a0
    800003d0:	00351513          	slli	a0,a0,0x3
    800003d4:	001cd797          	auipc	a5,0x1cd
    800003d8:	db478793          	addi	a5,a5,-588 # 801cd188 <file_table>
    800003dc:	00a78533          	add	a0,a5,a0
    800003e0:	00853503          	ld	a0,8(a0)
    800003e4:	00a58533          	add	a0,a1,a0
    800003e8:	001d7797          	auipc	a5,0x1d7
    800003ec:	c2a7b023          	sd	a0,-992(a5) # 801d7008 <seek_offset>
    800003f0:	00008067          	ret
    800003f4:	001d7797          	auipc	a5,0x1d7
    800003f8:	c0b7ba23          	sd	a1,-1004(a5) # 801d7008 <seek_offset>
    800003fc:	00058513          	mv	a0,a1
    80000400:	00008067          	ret
    80000404:	ff010113          	addi	sp,sp,-16
    80000408:	00001717          	auipc	a4,0x1
    8000040c:	7f070713          	addi	a4,a4,2032 # 80001bf8 <_etext+0xb0>
    80000410:	00002697          	auipc	a3,0x2
    80000414:	bb068693          	addi	a3,a3,-1104 # 80001fc0 <__func__.0>
    80000418:	07600613          	li	a2,118
    8000041c:	00001597          	auipc	a1,0x1
    80000420:	72c58593          	addi	a1,a1,1836 # 80001b48 <_etext>
    80000424:	00001517          	auipc	a0,0x1
    80000428:	7dc50513          	addi	a0,a0,2012 # 80001c00 <_etext+0xb8>
    8000042c:	00113423          	sd	ra,8(sp)
    80000430:	024010ef          	jal	ra,80001454 <printf>
    80000434:	00100513          	li	a0,1
    80000438:	0fd000ef          	jal	ra,80000d34 <halt>

000000008000043c <fs_close>:
    8000043c:	00000513          	li	a0,0
    80000440:	00008067          	ret

0000000080000444 <init_mm>:
    80000444:	00001737          	lui	a4,0x1
    80000448:	fff70713          	addi	a4,a4,-1 # fff <_entry_offset+0xfff>
    8000044c:	001ce797          	auipc	a5,0x1ce
    80000450:	b047b783          	ld	a5,-1276(a5) # 801cdf50 <heap>
    80000454:	00e787b3          	add	a5,a5,a4
    80000458:	fffff737          	lui	a4,0xfffff
    8000045c:	00e7f733          	and	a4,a5,a4
    80000460:	00003697          	auipc	a3,0x3
    80000464:	f0868693          	addi	a3,a3,-248 # 80003368 <__func__.0>
    80000468:	01a00613          	li	a2,26
    8000046c:	00002597          	auipc	a1,0x2
    80000470:	b9458593          	addi	a1,a1,-1132 # 80002000 <__func__.4+0x10>
    80000474:	00002517          	auipc	a0,0x2
    80000478:	c0450513          	addi	a0,a0,-1020 # 80002078 <__func__.4+0x88>
    8000047c:	7d90006f          	j	80001454 <printf>

0000000080000480 <serial_write>:
    80000480:	04060263          	beqz	a2,800004c4 <serial_write+0x44>
    80000484:	fe010113          	addi	sp,sp,-32
    80000488:	00813823          	sd	s0,16(sp)
    8000048c:	00913423          	sd	s1,8(sp)
    80000490:	00113c23          	sd	ra,24(sp)
    80000494:	00050413          	mv	s0,a0
    80000498:	00c504b3          	add	s1,a0,a2
    8000049c:	00044503          	lbu	a0,0(s0)
    800004a0:	00140413          	addi	s0,s0,1
    800004a4:	081000ef          	jal	ra,80000d24 <putch>
    800004a8:	fe941ae3          	bne	s0,s1,8000049c <serial_write+0x1c>
    800004ac:	01813083          	ld	ra,24(sp)
    800004b0:	01013403          	ld	s0,16(sp)
    800004b4:	00813483          	ld	s1,8(sp)
    800004b8:	00000513          	li	a0,0
    800004bc:	02010113          	addi	sp,sp,32
    800004c0:	00008067          	ret
    800004c4:	00000513          	li	a0,0
    800004c8:	00008067          	ret

00000000800004cc <events_read>:
    800004cc:	fd010113          	addi	sp,sp,-48
    800004d0:	00913c23          	sd	s1,24(sp)
    800004d4:	00810593          	addi	a1,sp,8
    800004d8:	00050493          	mv	s1,a0
    800004dc:	00800513          	li	a0,8
    800004e0:	02813023          	sd	s0,32(sp)
    800004e4:	02113423          	sd	ra,40(sp)
    800004e8:	00060413          	mv	s0,a2
    800004ec:	165000ef          	jal	ra,80000e50 <ioe_read>
    800004f0:	00c12783          	lw	a5,12(sp)
    800004f4:	00814683          	lbu	a3,8(sp)
    800004f8:	00000513          	li	a0,0
    800004fc:	02078863          	beqz	a5,8000052c <events_read+0x60>
    80000500:	00379793          	slli	a5,a5,0x3
    80000504:	001cd717          	auipc	a4,0x1cd
    80000508:	24c70713          	addi	a4,a4,588 # 801cd750 <keyname>
    8000050c:	00f707b3          	add	a5,a4,a5
    80000510:	0007b603          	ld	a2,0(a5)
    80000514:	02068663          	beqz	a3,80000540 <events_read+0x74>
    80000518:	00002597          	auipc	a1,0x2
    8000051c:	ba058593          	addi	a1,a1,-1120 # 800020b8 <__func__.4+0xc8>
    80000520:	00048513          	mv	a0,s1
    80000524:	1f8010ef          	jal	ra,8000171c <sprintf>
    80000528:	00040513          	mv	a0,s0
    8000052c:	02813083          	ld	ra,40(sp)
    80000530:	02013403          	ld	s0,32(sp)
    80000534:	01813483          	ld	s1,24(sp)
    80000538:	03010113          	addi	sp,sp,48
    8000053c:	00008067          	ret
    80000540:	00048513          	mv	a0,s1
    80000544:	00002597          	auipc	a1,0x2
    80000548:	b7c58593          	addi	a1,a1,-1156 # 800020c0 <__func__.4+0xd0>
    8000054c:	1d0010ef          	jal	ra,8000171c <sprintf>
    80000550:	02813083          	ld	ra,40(sp)
    80000554:	00040513          	mv	a0,s0
    80000558:	02013403          	ld	s0,32(sp)
    8000055c:	01813483          	ld	s1,24(sp)
    80000560:	03010113          	addi	sp,sp,48
    80000564:	00008067          	ret

0000000080000568 <dispinfo_read>:
    80000568:	ff010113          	addi	sp,sp,-16
    8000056c:	00002517          	auipc	a0,0x2
    80000570:	b5c50513          	addi	a0,a0,-1188 # 800020c8 <__func__.4+0xd8>
    80000574:	00113423          	sd	ra,8(sp)
    80000578:	6dd000ef          	jal	ra,80001454 <printf>
    8000057c:	00813083          	ld	ra,8(sp)
    80000580:	00000513          	li	a0,0
    80000584:	01010113          	addi	sp,sp,16
    80000588:	00008067          	ret

000000008000058c <fb_write>:
    8000058c:	fc010113          	addi	sp,sp,-64
    80000590:	02813823          	sd	s0,48(sp)
    80000594:	03213023          	sd	s2,32(sp)
    80000598:	00050413          	mv	s0,a0
    8000059c:	00058913          	mv	s2,a1
    800005a0:	00b00513          	li	a0,11
    800005a4:	00010593          	mv	a1,sp
    800005a8:	02913423          	sd	s1,40(sp)
    800005ac:	02113c23          	sd	ra,56(sp)
    800005b0:	00060493          	mv	s1,a2
    800005b4:	09d000ef          	jal	ra,80000e50 <ioe_read>
    800005b8:	12c00793          	li	a5,300
    800005bc:	02f95933          	divu	s2,s2,a5
    800005c0:	001d7617          	auipc	a2,0x1d7
    800005c4:	a4063603          	ld	a2,-1472(a2) # 801d7000 <fb_canva>
    800005c8:	0009091b          	sext.w	s2,s2
    800005cc:	02048463          	beqz	s1,800005f4 <fb_write+0x68>
    800005d0:	00249693          	slli	a3,s1,0x2
    800005d4:	00040513          	mv	a0,s0
    800005d8:	00060793          	mv	a5,a2
    800005dc:	00d406b3          	add	a3,s0,a3
    800005e0:	00052703          	lw	a4,0(a0)
    800005e4:	00450513          	addi	a0,a0,4
    800005e8:	00478793          	addi	a5,a5,4
    800005ec:	fee7ae23          	sw	a4,-4(a5)
    800005f0:	fed518e3          	bne	a0,a3,800005e0 <fb_write+0x54>
    800005f4:	00100713          	li	a4,1
    800005f8:	02071793          	slli	a5,a4,0x20
    800005fc:	19078793          	addi	a5,a5,400
    80000600:	00b00513          	li	a0,11
    80000604:	00010593          	mv	a1,sp
    80000608:	01212223          	sw	s2,4(sp)
    8000060c:	00012023          	sw	zero,0(sp)
    80000610:	00c13423          	sd	a2,8(sp)
    80000614:	00f13823          	sd	a5,16(sp)
    80000618:	00e10c23          	sb	a4,24(sp)
    8000061c:	051000ef          	jal	ra,80000e6c <ioe_write>
    80000620:	03813083          	ld	ra,56(sp)
    80000624:	03013403          	ld	s0,48(sp)
    80000628:	02813483          	ld	s1,40(sp)
    8000062c:	02013903          	ld	s2,32(sp)
    80000630:	00000513          	li	a0,0
    80000634:	04010113          	addi	sp,sp,64
    80000638:	00008067          	ret

000000008000063c <init_device>:
    8000063c:	ff010113          	addi	sp,sp,-16
    80000640:	00002697          	auipc	a3,0x2
    80000644:	dc868693          	addi	a3,a3,-568 # 80002408 <__func__.0>
    80000648:	03b00613          	li	a2,59
    8000064c:	00002597          	auipc	a1,0x2
    80000650:	a8c58593          	addi	a1,a1,-1396 # 800020d8 <__func__.4+0xe8>
    80000654:	00002517          	auipc	a0,0x2
    80000658:	ac450513          	addi	a0,a0,-1340 # 80002118 <__func__.4+0x128>
    8000065c:	00113423          	sd	ra,8(sp)
    80000660:	5f5000ef          	jal	ra,80001454 <printf>
    80000664:	00813083          	ld	ra,8(sp)
    80000668:	01010113          	addi	sp,sp,16
    8000066c:	7880006f          	j	80000df4 <ioe_init>

0000000080000670 <strace_main>:
    80000670:	01300793          	li	a5,19
    80000674:	02a7e063          	bltu	a5,a0,80000694 <strace_main+0x24>
    80000678:	00002717          	auipc	a4,0x2
    8000067c:	00070713          	mv	a4,a4
    80000680:	00251513          	slli	a0,a0,0x2
    80000684:	00e50533          	add	a0,a0,a4
    80000688:	00052783          	lw	a5,0(a0)
    8000068c:	00e787b3          	add	a5,a5,a4
    80000690:	00078067          	jr	a5
    80000694:	00002517          	auipc	a0,0x2
    80000698:	fcc50513          	addi	a0,a0,-52 # 80002660 <__func__.0+0x258>
    8000069c:	5b90006f          	j	80001454 <printf>
    800006a0:	00002517          	auipc	a0,0x2
    800006a4:	d7850513          	addi	a0,a0,-648 # 80002418 <__func__.0+0x10>
    800006a8:	5ad0006f          	j	80001454 <printf>
    800006ac:	00002517          	auipc	a0,0x2
    800006b0:	dac50513          	addi	a0,a0,-596 # 80002458 <__func__.0+0x50>
    800006b4:	5a10006f          	j	80001454 <printf>
    800006b8:	00002517          	auipc	a0,0x2
    800006bc:	de050513          	addi	a0,a0,-544 # 80002498 <__func__.0+0x90>
    800006c0:	5950006f          	j	80001454 <printf>
    800006c4:	00002517          	auipc	a0,0x2
    800006c8:	e1450513          	addi	a0,a0,-492 # 800024d8 <__func__.0+0xd0>
    800006cc:	5890006f          	j	80001454 <printf>
    800006d0:	00002517          	auipc	a0,0x2
    800006d4:	e4850513          	addi	a0,a0,-440 # 80002518 <__func__.0+0x110>
    800006d8:	57d0006f          	j	80001454 <printf>
    800006dc:	00002517          	auipc	a0,0x2
    800006e0:	e7c50513          	addi	a0,a0,-388 # 80002558 <__func__.0+0x150>
    800006e4:	5710006f          	j	80001454 <printf>
    800006e8:	00002517          	auipc	a0,0x2
    800006ec:	eb050513          	addi	a0,a0,-336 # 80002598 <__func__.0+0x190>
    800006f0:	5650006f          	j	80001454 <printf>
    800006f4:	00002517          	auipc	a0,0x2
    800006f8:	ee450513          	addi	a0,a0,-284 # 800025d8 <__func__.0+0x1d0>
    800006fc:	5590006f          	j	80001454 <printf>
    80000700:	00002517          	auipc	a0,0x2
    80000704:	f1850513          	addi	a0,a0,-232 # 80002618 <__func__.0+0x210>
    80000708:	54d0006f          	j	80001454 <printf>

000000008000070c <do_syscall>:
    8000070c:	08853703          	ld	a4,136(a0)
    80000710:	fe010113          	addi	sp,sp,-32
    80000714:	00113c23          	sd	ra,24(sp)
    80000718:	00813823          	sd	s0,16(sp)
    8000071c:	01300793          	li	a5,19
    80000720:	05053803          	ld	a6,80(a0)
    80000724:	05853583          	ld	a1,88(a0)
    80000728:	06053603          	ld	a2,96(a0)
    8000072c:	12e7e663          	bltu	a5,a4,80000858 <do_syscall+0x14c>
    80000730:	00050413          	mv	s0,a0
    80000734:	00271693          	slli	a3,a4,0x2
    80000738:	00002517          	auipc	a0,0x2
    8000073c:	01850513          	addi	a0,a0,24 # 80002750 <__func__.0+0x348>
    80000740:	00a686b3          	add	a3,a3,a0
    80000744:	0006a783          	lw	a5,0(a3)
    80000748:	00a787b3          	add	a5,a5,a0
    8000074c:	00078067          	jr	a5
    80000750:	1d1000ef          	jal	ra,80001120 <yield>
    80000754:	04043823          	sd	zero,80(s0)
    80000758:	01013403          	ld	s0,16(sp)
    8000075c:	01813083          	ld	ra,24(sp)
    80000760:	00000593          	li	a1,0
    80000764:	00100513          	li	a0,1
    80000768:	02010113          	addi	sp,sp,32
    8000076c:	f05ff06f          	j	80000670 <strace_main>
    80000770:	0005859b          	sext.w	a1,a1
    80000774:	0006061b          	sext.w	a2,a2
    80000778:	00080513          	mv	a0,a6
    8000077c:	93dff0ef          	jal	ra,800000b8 <fs_open>
    80000780:	04a43823          	sd	a0,80(s0)
    80000784:	01013403          	ld	s0,16(sp)
    80000788:	01813083          	ld	ra,24(sp)
    8000078c:	00050593          	mv	a1,a0
    80000790:	00200513          	li	a0,2
    80000794:	02010113          	addi	sp,sp,32
    80000798:	ed9ff06f          	j	80000670 <strace_main>
    8000079c:	0008051b          	sext.w	a0,a6
    800007a0:	9f9ff0ef          	jal	ra,80000198 <fs_read>
    800007a4:	01813083          	ld	ra,24(sp)
    800007a8:	04a43823          	sd	a0,80(s0)
    800007ac:	01013403          	ld	s0,16(sp)
    800007b0:	02010113          	addi	sp,sp,32
    800007b4:	00008067          	ret
    800007b8:	0008051b          	sext.w	a0,a6
    800007bc:	a59ff0ef          	jal	ra,80000214 <fs_write>
    800007c0:	01813083          	ld	ra,24(sp)
    800007c4:	04a43823          	sd	a0,80(s0)
    800007c8:	01013403          	ld	s0,16(sp)
    800007cc:	02010113          	addi	sp,sp,32
    800007d0:	00008067          	ret
    800007d4:	0008051b          	sext.w	a0,a6
    800007d8:	c65ff0ef          	jal	ra,8000043c <fs_close>
    800007dc:	04a43823          	sd	a0,80(s0)
    800007e0:	01013403          	ld	s0,16(sp)
    800007e4:	01813083          	ld	ra,24(sp)
    800007e8:	00050593          	mv	a1,a0
    800007ec:	00700513          	li	a0,7
    800007f0:	02010113          	addi	sp,sp,32
    800007f4:	e7dff06f          	j	80000670 <strace_main>
    800007f8:	0006061b          	sext.w	a2,a2
    800007fc:	0008051b          	sext.w	a0,a6
    80000800:	ad5ff0ef          	jal	ra,800002d4 <fs_lseek>
    80000804:	01813083          	ld	ra,24(sp)
    80000808:	04a43823          	sd	a0,80(s0)
    8000080c:	01013403          	ld	s0,16(sp)
    80000810:	02010113          	addi	sp,sp,32
    80000814:	00008067          	ret
    80000818:	04043823          	sd	zero,80(s0)
    8000081c:	01013403          	ld	s0,16(sp)
    80000820:	01813083          	ld	ra,24(sp)
    80000824:	00000593          	li	a1,0
    80000828:	00900513          	li	a0,9
    8000082c:	02010113          	addi	sp,sp,32
    80000830:	e41ff06f          	j	80000670 <strace_main>
    80000834:	00810593          	addi	a1,sp,8
    80000838:	00600513          	li	a0,6
    8000083c:	614000ef          	jal	ra,80000e50 <ioe_read>
    80000840:	00813783          	ld	a5,8(sp)
    80000844:	01813083          	ld	ra,24(sp)
    80000848:	04f43823          	sd	a5,80(s0)
    8000084c:	01013403          	ld	s0,16(sp)
    80000850:	02010113          	addi	sp,sp,32
    80000854:	00008067          	ret
    80000858:	00002697          	auipc	a3,0x2
    8000085c:	f4868693          	addi	a3,a3,-184 # 800027a0 <__func__.0>
    80000860:	04100613          	li	a2,65
    80000864:	00002597          	auipc	a1,0x2
    80000868:	e6458593          	addi	a1,a1,-412 # 800026c8 <__func__.0+0x2c0>
    8000086c:	00002517          	auipc	a0,0x2
    80000870:	e9c50513          	addi	a0,a0,-356 # 80002708 <__func__.0+0x300>
    80000874:	3e1000ef          	jal	ra,80001454 <printf>
    80000878:	00100513          	li	a0,1
    8000087c:	4b8000ef          	jal	ra,80000d34 <halt>
    80000880:	00000513          	li	a0,0
    80000884:	00080593          	mv	a1,a6
    80000888:	de9ff0ef          	jal	ra,80000670 <strace_main>
    8000088c:	05042503          	lw	a0,80(s0)
    80000890:	4a4000ef          	jal	ra,80000d34 <halt>

0000000080000894 <init_proc>:
    80000894:	ff010113          	addi	sp,sp,-16
    80000898:	00002597          	auipc	a1,0x2
    8000089c:	f1858593          	addi	a1,a1,-232 # 800027b0 <__func__.0+0x10>
    800008a0:	001ce797          	auipc	a5,0x1ce
    800008a4:	76078793          	addi	a5,a5,1888 # 801cf000 <pcb_boot>
    800008a8:	00002697          	auipc	a3,0x2
    800008ac:	fd868693          	addi	a3,a3,-40 # 80002880 <__func__.0>
    800008b0:	01900613          	li	a2,25
    800008b4:	00002517          	auipc	a0,0x2
    800008b8:	f9450513          	addi	a0,a0,-108 # 80002848 <__func__.0+0xa8>
    800008bc:	00113423          	sd	ra,8(sp)
    800008c0:	001d6717          	auipc	a4,0x1d6
    800008c4:	74f73823          	sd	a5,1872(a4) # 801d7010 <current>
    800008c8:	38d000ef          	jal	ra,80001454 <printf>
    800008cc:	00813083          	ld	ra,8(sp)
    800008d0:	00001597          	auipc	a1,0x1
    800008d4:	3c858593          	addi	a1,a1,968 # 80001c98 <_etext+0x150>
    800008d8:	00000513          	li	a0,0
    800008dc:	01010113          	addi	sp,sp,16
    800008e0:	1740006f          	j	80000a54 <naive_uload>

00000000800008e4 <do_event>:
    800008e4:	00052703          	lw	a4,0(a0)
    800008e8:	fe010113          	addi	sp,sp,-32
    800008ec:	00113c23          	sd	ra,24(sp)
    800008f0:	00200793          	li	a5,2
    800008f4:	00058513          	mv	a0,a1
    800008f8:	02f70e63          	beq	a4,a5,80000934 <do_event+0x50>
    800008fc:	00400793          	li	a5,4
    80000900:	04f70063          	beq	a4,a5,80000940 <do_event+0x5c>
    80000904:	00100793          	li	a5,1
    80000908:	02f70c63          	beq	a4,a5,80000940 <do_event+0x5c>
    8000090c:	00002697          	auipc	a3,0x2
    80000910:	5cc68693          	addi	a3,a3,1484 # 80002ed8 <__func__.0>
    80000914:	00800613          	li	a2,8
    80000918:	00002597          	auipc	a1,0x2
    8000091c:	4f058593          	addi	a1,a1,1264 # 80002e08 <logo+0x57e>
    80000920:	00002517          	auipc	a0,0x2
    80000924:	52850513          	addi	a0,a0,1320 # 80002e48 <logo+0x5be>
    80000928:	32d000ef          	jal	ra,80001454 <printf>
    8000092c:	00100513          	li	a0,1
    80000930:	404000ef          	jal	ra,80000d34 <halt>
    80000934:	00b13423          	sd	a1,8(sp)
    80000938:	dd5ff0ef          	jal	ra,8000070c <do_syscall>
    8000093c:	00813503          	ld	a0,8(sp)
    80000940:	01813083          	ld	ra,24(sp)
    80000944:	02010113          	addi	sp,sp,32
    80000948:	00008067          	ret

000000008000094c <init_irq>:
    8000094c:	ff010113          	addi	sp,sp,-16
    80000950:	00002697          	auipc	a3,0x2
    80000954:	59868693          	addi	a3,a3,1432 # 80002ee8 <__func__.1>
    80000958:	00f00613          	li	a2,15
    8000095c:	00002597          	auipc	a1,0x2
    80000960:	4ac58593          	addi	a1,a1,1196 # 80002e08 <logo+0x57e>
    80000964:	00002517          	auipc	a0,0x2
    80000968:	52c50513          	addi	a0,a0,1324 # 80002e90 <logo+0x606>
    8000096c:	00113423          	sd	ra,8(sp)
    80000970:	2e5000ef          	jal	ra,80001454 <printf>
    80000974:	00813083          	ld	ra,8(sp)
    80000978:	00000517          	auipc	a0,0x0
    8000097c:	f6c50513          	addi	a0,a0,-148 # 800008e4 <do_event>
    80000980:	01010113          	addi	sp,sp,16
    80000984:	77c0006f          	j	80001100 <cte_init>

0000000080000988 <main>:
    80000988:	ff010113          	addi	sp,sp,-16
    8000098c:	00002597          	auipc	a1,0x2
    80000990:	efe58593          	addi	a1,a1,-258 # 8000288a <logo>
    80000994:	00002517          	auipc	a0,0x2
    80000998:	56450513          	addi	a0,a0,1380 # 80002ef8 <__func__.1+0x10>
    8000099c:	00113423          	sd	ra,8(sp)
    800009a0:	00813023          	sd	s0,0(sp)
    800009a4:	2b1000ef          	jal	ra,80001454 <printf>
    800009a8:	00003417          	auipc	s0,0x3
    800009ac:	9c840413          	addi	s0,s0,-1592 # 80003370 <__func__.0>
    800009b0:	00040693          	mv	a3,s0
    800009b4:	00d00613          	li	a2,13
    800009b8:	00002597          	auipc	a1,0x2
    800009bc:	54858593          	addi	a1,a1,1352 # 80002f00 <__func__.1+0x18>
    800009c0:	00002517          	auipc	a0,0x2
    800009c4:	58050513          	addi	a0,a0,1408 # 80002f40 <__func__.1+0x58>
    800009c8:	28d000ef          	jal	ra,80001454 <printf>
    800009cc:	00002797          	auipc	a5,0x2
    800009d0:	5ac78793          	addi	a5,a5,1452 # 80002f78 <__func__.1+0x90>
    800009d4:	00002717          	auipc	a4,0x2
    800009d8:	5b470713          	addi	a4,a4,1460 # 80002f88 <__func__.1+0xa0>
    800009dc:	00e00613          	li	a2,14
    800009e0:	00002597          	auipc	a1,0x2
    800009e4:	52058593          	addi	a1,a1,1312 # 80002f00 <__func__.1+0x18>
    800009e8:	00040693          	mv	a3,s0
    800009ec:	00002517          	auipc	a0,0x2
    800009f0:	5ac50513          	addi	a0,a0,1452 # 80002f98 <__func__.1+0xb0>
    800009f4:	261000ef          	jal	ra,80001454 <printf>
    800009f8:	a4dff0ef          	jal	ra,80000444 <init_mm>
    800009fc:	c41ff0ef          	jal	ra,8000063c <init_device>
    80000a00:	2f0000ef          	jal	ra,80000cf0 <init_ramdisk>
    80000a04:	f49ff0ef          	jal	ra,8000094c <init_irq>
    80000a08:	e68ff0ef          	jal	ra,80000070 <init_fs>
    80000a0c:	e89ff0ef          	jal	ra,80000894 <init_proc>
    80000a10:	00040693          	mv	a3,s0
    80000a14:	01e00613          	li	a2,30
    80000a18:	00002597          	auipc	a1,0x2
    80000a1c:	4e858593          	addi	a1,a1,1256 # 80002f00 <__func__.1+0x18>
    80000a20:	00002517          	auipc	a0,0x2
    80000a24:	5a850513          	addi	a0,a0,1448 # 80002fc8 <__func__.1+0xe0>
    80000a28:	22d000ef          	jal	ra,80001454 <printf>
    80000a2c:	6f4000ef          	jal	ra,80001120 <yield>
    80000a30:	00040693          	mv	a3,s0
    80000a34:	02400613          	li	a2,36
    80000a38:	00002597          	auipc	a1,0x2
    80000a3c:	4c858593          	addi	a1,a1,1224 # 80002f00 <__func__.1+0x18>
    80000a40:	00002517          	auipc	a0,0x2
    80000a44:	5b850513          	addi	a0,a0,1464 # 80002ff8 <__func__.1+0x110>
    80000a48:	20d000ef          	jal	ra,80001454 <printf>
    80000a4c:	00100513          	li	a0,1
    80000a50:	2e4000ef          	jal	ra,80000d34 <halt>

0000000080000a54 <naive_uload>:
    80000a54:	f6010113          	addi	sp,sp,-160
    80000a58:	00058513          	mv	a0,a1
    80000a5c:	00000613          	li	a2,0
    80000a60:	00000593          	li	a1,0
    80000a64:	08113c23          	sd	ra,152(sp)
    80000a68:	08913423          	sd	s1,136(sp)
    80000a6c:	08813823          	sd	s0,144(sp)
    80000a70:	09213023          	sd	s2,128(sp)
    80000a74:	e44ff0ef          	jal	ra,800000b8 <fs_open>
    80000a78:	04000613          	li	a2,64
    80000a7c:	04010593          	addi	a1,sp,64
    80000a80:	00050493          	mv	s1,a0
    80000a84:	04013023          	sd	zero,64(sp)
    80000a88:	04013423          	sd	zero,72(sp)
    80000a8c:	04013823          	sd	zero,80(sp)
    80000a90:	04013c23          	sd	zero,88(sp)
    80000a94:	06013023          	sd	zero,96(sp)
    80000a98:	06013423          	sd	zero,104(sp)
    80000a9c:	06013823          	sd	zero,112(sp)
    80000aa0:	06013c23          	sd	zero,120(sp)
    80000aa4:	00013423          	sd	zero,8(sp)
    80000aa8:	00013823          	sd	zero,16(sp)
    80000aac:	00013c23          	sd	zero,24(sp)
    80000ab0:	02013023          	sd	zero,32(sp)
    80000ab4:	02013423          	sd	zero,40(sp)
    80000ab8:	02013823          	sd	zero,48(sp)
    80000abc:	02013c23          	sd	zero,56(sp)
    80000ac0:	e84ff0ef          	jal	ra,80000144 <fs_read1>
    80000ac4:	04012703          	lw	a4,64(sp)
    80000ac8:	464c47b7          	lui	a5,0x464c4
    80000acc:	57f78793          	addi	a5,a5,1407 # 464c457f <_entry_offset+0x464c457f>
    80000ad0:	0ef71c63          	bne	a4,a5,80000bc8 <naive_uload+0x174>
    80000ad4:	07815783          	lhu	a5,120(sp)
    80000ad8:	00000413          	li	s0,0
    80000adc:	00002917          	auipc	s2,0x2
    80000ae0:	5d490913          	addi	s2,s2,1492 # 800030b0 <__func__.1+0x1c8>
    80000ae4:	00079a63          	bnez	a5,80000af8 <naive_uload+0xa4>
    80000ae8:	09c0006f          	j	80000b84 <naive_uload+0x130>
    80000aec:	07815783          	lhu	a5,120(sp)
    80000af0:	0014041b          	addiw	s0,s0,1
    80000af4:	08f45863          	bge	s0,a5,80000b84 <naive_uload+0x130>
    80000af8:	07615783          	lhu	a5,118(sp)
    80000afc:	06013583          	ld	a1,96(sp)
    80000b00:	00100613          	li	a2,1
    80000b04:	028787bb          	mulw	a5,a5,s0
    80000b08:	00048513          	mv	a0,s1
    80000b0c:	00b785b3          	add	a1,a5,a1
    80000b10:	879ff0ef          	jal	ra,80000388 <fs_lseek1>
    80000b14:	07615603          	lhu	a2,118(sp)
    80000b18:	00810593          	addi	a1,sp,8
    80000b1c:	00048513          	mv	a0,s1
    80000b20:	e24ff0ef          	jal	ra,80000144 <fs_read1>
    80000b24:	00812703          	lw	a4,8(sp)
    80000b28:	00100793          	li	a5,1
    80000b2c:	fcf710e3          	bne	a4,a5,80000aec <naive_uload+0x98>
    80000b30:	00040593          	mv	a1,s0
    80000b34:	00090513          	mv	a0,s2
    80000b38:	11d000ef          	jal	ra,80001454 <printf>
    80000b3c:	01013583          	ld	a1,16(sp)
    80000b40:	00100613          	li	a2,1
    80000b44:	00048513          	mv	a0,s1
    80000b48:	841ff0ef          	jal	ra,80000388 <fs_lseek1>
    80000b4c:	03013603          	ld	a2,48(sp)
    80000b50:	02013583          	ld	a1,32(sp)
    80000b54:	00048513          	mv	a0,s1
    80000b58:	0014041b          	addiw	s0,s0,1
    80000b5c:	de8ff0ef          	jal	ra,80000144 <fs_read1>
    80000b60:	02813783          	ld	a5,40(sp)
    80000b64:	03013603          	ld	a2,48(sp)
    80000b68:	01813503          	ld	a0,24(sp)
    80000b6c:	00000593          	li	a1,0
    80000b70:	40f60633          	sub	a2,a2,a5
    80000b74:	00a78533          	add	a0,a5,a0
    80000b78:	71c000ef          	jal	ra,80001294 <memset>
    80000b7c:	07815783          	lhu	a5,120(sp)
    80000b80:	f6f44ce3          	blt	s0,a5,80000af8 <naive_uload+0xa4>
    80000b84:	05813403          	ld	s0,88(sp)
    80000b88:	00002697          	auipc	a3,0x2
    80000b8c:	56868693          	addi	a3,a3,1384 # 800030f0 <__func__.1>
    80000b90:	02900613          	li	a2,41
    80000b94:	00040713          	mv	a4,s0
    80000b98:	00002597          	auipc	a1,0x2
    80000b9c:	4d858593          	addi	a1,a1,1240 # 80003070 <__func__.1+0x188>
    80000ba0:	00002517          	auipc	a0,0x2
    80000ba4:	52050513          	addi	a0,a0,1312 # 800030c0 <__func__.1+0x1d8>
    80000ba8:	0ad000ef          	jal	ra,80001454 <printf>
    80000bac:	00040793          	mv	a5,s0
    80000bb0:	09013403          	ld	s0,144(sp)
    80000bb4:	09813083          	ld	ra,152(sp)
    80000bb8:	08813483          	ld	s1,136(sp)
    80000bbc:	08013903          	ld	s2,128(sp)
    80000bc0:	0a010113          	addi	sp,sp,160
    80000bc4:	00078067          	jr	a5
    80000bc8:	00002717          	auipc	a4,0x2
    80000bcc:	47870713          	addi	a4,a4,1144 # 80003040 <__func__.1+0x158>
    80000bd0:	00002697          	auipc	a3,0x2
    80000bd4:	7a868693          	addi	a3,a3,1960 # 80003378 <__func__.0>
    80000bd8:	01500613          	li	a2,21
    80000bdc:	00002597          	auipc	a1,0x2
    80000be0:	49458593          	addi	a1,a1,1172 # 80003070 <__func__.1+0x188>
    80000be4:	00001517          	auipc	a0,0x1
    80000be8:	01c50513          	addi	a0,a0,28 # 80001c00 <_etext+0xb8>
    80000bec:	069000ef          	jal	ra,80001454 <printf>
    80000bf0:	00100513          	li	a0,1
    80000bf4:	140000ef          	jal	ra,80000d34 <halt>

0000000080000bf8 <ramdisk_read>:
    80000bf8:	ff010113          	addi	sp,sp,-16
    80000bfc:	00002717          	auipc	a4,0x2
    80000c00:	78570713          	addi	a4,a4,1925 # 80003381 <ramdisk_start>
    80000c04:	001cc797          	auipc	a5,0x1cc
    80000c08:	57d78793          	addi	a5,a5,1405 # 801cd181 <_data>
    80000c0c:	00113423          	sd	ra,8(sp)
    80000c10:	00813023          	sd	s0,0(sp)
    80000c14:	00c586b3          	add	a3,a1,a2
    80000c18:	40e787b3          	sub	a5,a5,a4
    80000c1c:	02d7e263          	bltu	a5,a3,80000c40 <ramdisk_read+0x48>
    80000c20:	00b705b3          	add	a1,a4,a1
    80000c24:	00060413          	mv	s0,a2
    80000c28:	68c000ef          	jal	ra,800012b4 <memcpy>
    80000c2c:	00813083          	ld	ra,8(sp)
    80000c30:	00040513          	mv	a0,s0
    80000c34:	00013403          	ld	s0,0(sp)
    80000c38:	01010113          	addi	sp,sp,16
    80000c3c:	00008067          	ret
    80000c40:	00002717          	auipc	a4,0x2
    80000c44:	4c070713          	addi	a4,a4,1216 # 80003100 <__func__.1+0x10>
    80000c48:	00002697          	auipc	a3,0x2
    80000c4c:	58868693          	addi	a3,a3,1416 # 800031d0 <__func__.2>
    80000c50:	00e00613          	li	a2,14
    80000c54:	00002597          	auipc	a1,0x2
    80000c58:	4cc58593          	addi	a1,a1,1228 # 80003120 <__func__.1+0x30>
    80000c5c:	00001517          	auipc	a0,0x1
    80000c60:	fa450513          	addi	a0,a0,-92 # 80001c00 <_etext+0xb8>
    80000c64:	7f0000ef          	jal	ra,80001454 <printf>
    80000c68:	00100513          	li	a0,1
    80000c6c:	0c8000ef          	jal	ra,80000d34 <halt>

0000000080000c70 <ramdisk_write>:
    80000c70:	ff010113          	addi	sp,sp,-16
    80000c74:	00002697          	auipc	a3,0x2
    80000c78:	70d68693          	addi	a3,a3,1805 # 80003381 <ramdisk_start>
    80000c7c:	001cc717          	auipc	a4,0x1cc
    80000c80:	50570713          	addi	a4,a4,1285 # 801cd181 <_data>
    80000c84:	00113423          	sd	ra,8(sp)
    80000c88:	00813023          	sd	s0,0(sp)
    80000c8c:	00c58833          	add	a6,a1,a2
    80000c90:	40d70733          	sub	a4,a4,a3
    80000c94:	03076663          	bltu	a4,a6,80000cc0 <ramdisk_write+0x50>
    80000c98:	00058793          	mv	a5,a1
    80000c9c:	00050593          	mv	a1,a0
    80000ca0:	00f68533          	add	a0,a3,a5
    80000ca4:	00060413          	mv	s0,a2
    80000ca8:	60c000ef          	jal	ra,800012b4 <memcpy>
    80000cac:	00813083          	ld	ra,8(sp)
    80000cb0:	00040513          	mv	a0,s0
    80000cb4:	00013403          	ld	s0,0(sp)
    80000cb8:	01010113          	addi	sp,sp,16
    80000cbc:	00008067          	ret
    80000cc0:	00002717          	auipc	a4,0x2
    80000cc4:	44070713          	addi	a4,a4,1088 # 80003100 <__func__.1+0x10>
    80000cc8:	00002697          	auipc	a3,0x2
    80000ccc:	4f868693          	addi	a3,a3,1272 # 800031c0 <__func__.1>
    80000cd0:	01500613          	li	a2,21
    80000cd4:	00002597          	auipc	a1,0x2
    80000cd8:	44c58593          	addi	a1,a1,1100 # 80003120 <__func__.1+0x30>
    80000cdc:	00001517          	auipc	a0,0x1
    80000ce0:	f2450513          	addi	a0,a0,-220 # 80001c00 <_etext+0xb8>
    80000ce4:	770000ef          	jal	ra,80001454 <printf>
    80000ce8:	00100513          	li	a0,1
    80000cec:	048000ef          	jal	ra,80000d34 <halt>

0000000080000cf0 <init_ramdisk>:
    80000cf0:	001cc797          	auipc	a5,0x1cc
    80000cf4:	49178793          	addi	a5,a5,1169 # 801cd181 <_data>
    80000cf8:	00002717          	auipc	a4,0x2
    80000cfc:	68970713          	addi	a4,a4,1673 # 80003381 <ramdisk_start>
    80000d00:	40e78833          	sub	a6,a5,a4
    80000d04:	00002697          	auipc	a3,0x2
    80000d08:	4ac68693          	addi	a3,a3,1196 # 800031b0 <__func__.0>
    80000d0c:	01b00613          	li	a2,27
    80000d10:	00002597          	auipc	a1,0x2
    80000d14:	41058593          	addi	a1,a1,1040 # 80003120 <__func__.1+0x30>
    80000d18:	00002517          	auipc	a0,0x2
    80000d1c:	44850513          	addi	a0,a0,1096 # 80003160 <__func__.1+0x70>
    80000d20:	7340006f          	j	80001454 <printf>

0000000080000d24 <putch>:
    80000d24:	00500793          	li	a5,5
    80000d28:	01d79793          	slli	a5,a5,0x1d
    80000d2c:	3ea78c23          	sb	a0,1016(a5)
    80000d30:	00008067          	ret

0000000080000d34 <halt>:
    80000d34:	00050513          	mv	a0,a0
    80000d38:	00100073          	ebreak
    80000d3c:	0000006f          	j	80000d3c <halt+0x8>

0000000080000d40 <_trm_init>:
    80000d40:	ff010113          	addi	sp,sp,-16
    80000d44:	00002517          	auipc	a0,0x2
    80000d48:	63c50513          	addi	a0,a0,1596 # 80003380 <mainargs>
    80000d4c:	00113423          	sd	ra,8(sp)
    80000d50:	c39ff0ef          	jal	ra,80000988 <main>
    80000d54:	00050513          	mv	a0,a0
    80000d58:	00100073          	ebreak
    80000d5c:	0000006f          	j	80000d5c <_trm_init+0x1c>

0000000080000d60 <__am_timer_config>:
    80000d60:	00100793          	li	a5,1
    80000d64:	00f50023          	sb	a5,0(a0)
    80000d68:	00f500a3          	sb	a5,1(a0)
    80000d6c:	00008067          	ret

0000000080000d70 <__am_input_config>:
    80000d70:	00100793          	li	a5,1
    80000d74:	00f50023          	sb	a5,0(a0)
    80000d78:	00008067          	ret

0000000080000d7c <__am_uart_config>:
    80000d7c:	00050023          	sb	zero,0(a0)
    80000d80:	00008067          	ret

0000000080000d84 <__am_net_config>:
    80000d84:	00050023          	sb	zero,0(a0)
    80000d88:	00008067          	ret

0000000080000d8c <fail>:
    80000d8c:	ff010113          	addi	sp,sp,-16
    80000d90:	00813023          	sd	s0,0(sp)
    80000d94:	00113423          	sd	ra,8(sp)
    80000d98:	00002417          	auipc	s0,0x2
    80000d9c:	44840413          	addi	s0,s0,1096 # 800031e0 <__func__.2+0x10>
    80000da0:	04100513          	li	a0,65
    80000da4:	00140413          	addi	s0,s0,1
    80000da8:	f7dff0ef          	jal	ra,80000d24 <putch>
    80000dac:	00044503          	lbu	a0,0(s0)
    80000db0:	fe051ae3          	bnez	a0,80000da4 <fail+0x18>
    80000db4:	00002417          	auipc	s0,0x2
    80000db8:	43c40413          	addi	s0,s0,1084 # 800031f0 <__func__.2+0x20>
    80000dbc:	06100513          	li	a0,97
    80000dc0:	00140413          	addi	s0,s0,1
    80000dc4:	f61ff0ef          	jal	ra,80000d24 <putch>
    80000dc8:	00044503          	lbu	a0,0(s0)
    80000dcc:	fe051ae3          	bnez	a0,80000dc0 <fail+0x34>
    80000dd0:	00002417          	auipc	s0,0x2
    80000dd4:	44040413          	addi	s0,s0,1088 # 80003210 <__func__.2+0x40>
    80000dd8:	02000513          	li	a0,32
    80000ddc:	00140413          	addi	s0,s0,1
    80000de0:	f45ff0ef          	jal	ra,80000d24 <putch>
    80000de4:	00044503          	lbu	a0,0(s0)
    80000de8:	fe051ae3          	bnez	a0,80000ddc <fail+0x50>
    80000dec:	00100513          	li	a0,1
    80000df0:	f45ff0ef          	jal	ra,80000d34 <halt>

0000000080000df4 <ioe_init>:
    80000df4:	ff010113          	addi	sp,sp,-16
    80000df8:	00113423          	sd	ra,8(sp)
    80000dfc:	001cd797          	auipc	a5,0x1cd
    80000e00:	16478793          	addi	a5,a5,356 # 801cdf60 <lut>
    80000e04:	001cd697          	auipc	a3,0x1cd
    80000e08:	55c68693          	addi	a3,a3,1372 # 801ce360 <malloc_flag>
    80000e0c:	00000617          	auipc	a2,0x0
    80000e10:	f8060613          	addi	a2,a2,-128 # 80000d8c <fail>
    80000e14:	00c0006f          	j	80000e20 <ioe_init+0x2c>
    80000e18:	00878793          	addi	a5,a5,8
    80000e1c:	00d78c63          	beq	a5,a3,80000e34 <ioe_init+0x40>
    80000e20:	0007b703          	ld	a4,0(a5)
    80000e24:	fe071ae3          	bnez	a4,80000e18 <ioe_init+0x24>
    80000e28:	00c7b023          	sd	a2,0(a5)
    80000e2c:	00878793          	addi	a5,a5,8
    80000e30:	fed798e3          	bne	a5,a3,80000e20 <ioe_init+0x2c>
    80000e34:	0c8000ef          	jal	ra,80000efc <__am_gpu_init>
    80000e38:	050000ef          	jal	ra,80000e88 <__am_timer_init>
    80000e3c:	1bc000ef          	jal	ra,80000ff8 <__am_audio_init>
    80000e40:	00813083          	ld	ra,8(sp)
    80000e44:	00100513          	li	a0,1
    80000e48:	01010113          	addi	sp,sp,16
    80000e4c:	00008067          	ret

0000000080000e50 <ioe_read>:
    80000e50:	00351793          	slli	a5,a0,0x3
    80000e54:	001cd517          	auipc	a0,0x1cd
    80000e58:	10c50513          	addi	a0,a0,268 # 801cdf60 <lut>
    80000e5c:	00f50533          	add	a0,a0,a5
    80000e60:	00053783          	ld	a5,0(a0)
    80000e64:	00058513          	mv	a0,a1
    80000e68:	00078067          	jr	a5

0000000080000e6c <ioe_write>:
    80000e6c:	00351793          	slli	a5,a0,0x3
    80000e70:	001cd517          	auipc	a0,0x1cd
    80000e74:	0f050513          	addi	a0,a0,240 # 801cdf60 <lut>
    80000e78:	00f50533          	add	a0,a0,a5
    80000e7c:	00053783          	ld	a5,0(a0)
    80000e80:	00058513          	mv	a0,a1
    80000e84:	00078067          	jr	a5

0000000080000e88 <__am_timer_init>:
    80000e88:	00008067          	ret

0000000080000e8c <__am_timer_uptime>:
    80000e8c:	00500713          	li	a4,5
    80000e90:	01d71713          	slli	a4,a4,0x1d
    80000e94:	04872683          	lw	a3,72(a4)
    80000e98:	04c72783          	lw	a5,76(a4)
    80000e9c:	00d7e7b3          	or	a5,a5,a3
    80000ea0:	02079793          	slli	a5,a5,0x20
    80000ea4:	0207d793          	srli	a5,a5,0x20
    80000ea8:	00f53023          	sd	a5,0(a0)
    80000eac:	00008067          	ret

0000000080000eb0 <__am_timer_rtc>:
    80000eb0:	76c00793          	li	a5,1900
    80000eb4:	00052a23          	sw	zero,20(a0)
    80000eb8:	00052823          	sw	zero,16(a0)
    80000ebc:	00052623          	sw	zero,12(a0)
    80000ec0:	00052423          	sw	zero,8(a0)
    80000ec4:	00052223          	sw	zero,4(a0)
    80000ec8:	00f52023          	sw	a5,0(a0)
    80000ecc:	00008067          	ret

0000000080000ed0 <__am_input_keybrd>:
    80000ed0:	00500793          	li	a5,5
    80000ed4:	01d79793          	slli	a5,a5,0x1d
    80000ed8:	0607a683          	lw	a3,96(a5)
    80000edc:	ffff87b7          	lui	a5,0xffff8
    80000ee0:	fff78793          	addi	a5,a5,-1 # ffffffffffff7fff <_end+0xffffffff7fe17fff>
    80000ee4:	00f6d71b          	srliw	a4,a3,0xf
    80000ee8:	00177713          	andi	a4,a4,1
    80000eec:	00d7f7b3          	and	a5,a5,a3
    80000ef0:	00e50023          	sb	a4,0(a0)
    80000ef4:	00f52223          	sw	a5,4(a0)
    80000ef8:	00008067          	ret

0000000080000efc <__am_gpu_init>:
    80000efc:	00008067          	ret

0000000080000f00 <__am_gpu_config>:
    80000f00:	00002797          	auipc	a5,0x2
    80000f04:	37078793          	addi	a5,a5,880 # 80003270 <__func__.2+0xa0>
    80000f08:	0007a603          	lw	a2,0(a5)
    80000f0c:	0047a683          	lw	a3,4(a5)
    80000f10:	0087a703          	lw	a4,8(a5)
    80000f14:	00c7a783          	lw	a5,12(a5)
    80000f18:	00c52023          	sw	a2,0(a0)
    80000f1c:	00d52223          	sw	a3,4(a0)
    80000f20:	00e52423          	sw	a4,8(a0)
    80000f24:	00f52623          	sw	a5,12(a0)
    80000f28:	00008067          	ret

0000000080000f2c <__am_gpu_fbdraw>:
    80000f2c:	01052783          	lw	a5,16(a0)
    80000f30:	0a078c63          	beqz	a5,80000fe8 <__am_gpu_fbdraw+0xbc>
    80000f34:	01452f83          	lw	t6,20(a0)
    80000f38:	0a0f8863          	beqz	t6,80000fe8 <__am_gpu_fbdraw+0xbc>
    80000f3c:	00052703          	lw	a4,0(a0)
    80000f40:	19000f13          	li	t5,400
    80000f44:	00853883          	ld	a7,8(a0)
    80000f48:	40ef06bb          	subw	a3,t5,a4
    80000f4c:	00068f13          	mv	t5,a3
    80000f50:	00d7d463          	bge	a5,a3,80000f58 <__am_gpu_fbdraw+0x2c>
    80000f54:	00078f1b          	sext.w	t5,a5
    80000f58:	00452683          	lw	a3,4(a0)
    80000f5c:	19000e13          	li	t3,400
    80000f60:	ffff079b          	addiw	a5,t5,-1
    80000f64:	02de0e3b          	mulw	t3,t3,a3
    80000f68:	02079793          	slli	a5,a5,0x20
    80000f6c:	01e7d793          	srli	a5,a5,0x1e
    80000f70:	00488593          	addi	a1,a7,4
    80000f74:	0a100813          	li	a6,161
    80000f78:	002f1e93          	slli	t4,t5,0x2
    80000f7c:	00b785b3          	add	a1,a5,a1
    80000f80:	00000313          	li	t1,0
    80000f84:	01881813          	slli	a6,a6,0x18
    80000f88:	12c00293          	li	t0,300
    80000f8c:	00ee0e3b          	addw	t3,t3,a4
    80000f90:	05f35063          	bge	t1,t6,80000fd0 <__am_gpu_fbdraw+0xa4>
    80000f94:	002e1613          	slli	a2,t3,0x2
    80000f98:	00088793          	mv	a5,a7
    80000f9c:	41160633          	sub	a2,a2,a7
    80000fa0:	01e05e63          	blez	t5,80000fbc <__am_gpu_fbdraw+0x90>
    80000fa4:	0007a683          	lw	a3,0(a5)
    80000fa8:	00f60733          	add	a4,a2,a5
    80000fac:	00e80733          	add	a4,a6,a4
    80000fb0:	00d72023          	sw	a3,0(a4)
    80000fb4:	00478793          	addi	a5,a5,4
    80000fb8:	feb796e3          	bne	a5,a1,80000fa4 <__am_gpu_fbdraw+0x78>
    80000fbc:	0013031b          	addiw	t1,t1,1
    80000fc0:	01d888b3          	add	a7,a7,t4
    80000fc4:	190e0e1b          	addiw	t3,t3,400
    80000fc8:	01d585b3          	add	a1,a1,t4
    80000fcc:	fc5312e3          	bne	t1,t0,80000f90 <__am_gpu_fbdraw+0x64>
    80000fd0:	01854783          	lbu	a5,24(a0)
    80000fd4:	00078a63          	beqz	a5,80000fe8 <__am_gpu_fbdraw+0xbc>
    80000fd8:	00500793          	li	a5,5
    80000fdc:	01d79793          	slli	a5,a5,0x1d
    80000fe0:	00100713          	li	a4,1
    80000fe4:	10e7a223          	sw	a4,260(a5)
    80000fe8:	00008067          	ret

0000000080000fec <__am_gpu_status>:
    80000fec:	00100793          	li	a5,1
    80000ff0:	00f50023          	sb	a5,0(a0)
    80000ff4:	00008067          	ret

0000000080000ff8 <__am_audio_init>:
    80000ff8:	00008067          	ret

0000000080000ffc <__am_audio_config>:
    80000ffc:	00050023          	sb	zero,0(a0)
    80001000:	00008067          	ret

0000000080001004 <__am_audio_ctrl>:
    80001004:	00008067          	ret

0000000080001008 <__am_audio_status>:
    80001008:	00052023          	sw	zero,0(a0)
    8000100c:	00008067          	ret

0000000080001010 <__am_audio_play>:
    80001010:	00008067          	ret

0000000080001014 <__am_disk_config>:
    80001014:	00050023          	sb	zero,0(a0)
    80001018:	00008067          	ret

000000008000101c <__am_disk_status>:
    8000101c:	00008067          	ret

0000000080001020 <__am_disk_blkio>:
    80001020:	00008067          	ret

0000000080001024 <__am_irq_handle>:
    80001024:	001d6797          	auipc	a5,0x1d6
    80001028:	ff47b783          	ld	a5,-12(a5) # 801d7018 <user_handler>
    8000102c:	00050593          	mv	a1,a0
    80001030:	08078a63          	beqz	a5,800010c4 <__am_irq_handle+0xa0>
    80001034:	10053683          	ld	a3,256(a0)
    80001038:	fb010113          	addi	sp,sp,-80
    8000103c:	04113423          	sd	ra,72(sp)
    80001040:	02013023          	sd	zero,32(sp)
    80001044:	02013423          	sd	zero,40(sp)
    80001048:	02013823          	sd	zero,48(sp)
    8000104c:	02013c23          	sd	zero,56(sp)
    80001050:	00b00713          	li	a4,11
    80001054:	04e68263          	beq	a3,a4,80001098 <__am_irq_handle+0x74>
    80001058:	00400713          	li	a4,4
    8000105c:	02e12023          	sw	a4,32(sp)
    80001060:	02013703          	ld	a4,32(sp)
    80001064:	00010513          	mv	a0,sp
    80001068:	00e13023          	sd	a4,0(sp)
    8000106c:	02813703          	ld	a4,40(sp)
    80001070:	00e13423          	sd	a4,8(sp)
    80001074:	03013703          	ld	a4,48(sp)
    80001078:	00e13823          	sd	a4,16(sp)
    8000107c:	03813703          	ld	a4,56(sp)
    80001080:	00e13c23          	sd	a4,24(sp)
    80001084:	000780e7          	jalr	a5
    80001088:	04050c63          	beqz	a0,800010e0 <__am_irq_handle+0xbc>
    8000108c:	04813083          	ld	ra,72(sp)
    80001090:	05010113          	addi	sp,sp,80
    80001094:	00008067          	ret
    80001098:	08853703          	ld	a4,136(a0)
    8000109c:	fff00693          	li	a3,-1
    800010a0:	02d70463          	beq	a4,a3,800010c8 <__am_irq_handle+0xa4>
    800010a4:	01300693          	li	a3,19
    800010a8:	fae6e8e3          	bltu	a3,a4,80001058 <__am_irq_handle+0x34>
    800010ac:	11053703          	ld	a4,272(a0)
    800010b0:	00200693          	li	a3,2
    800010b4:	02d12023          	sw	a3,32(sp)
    800010b8:	00470713          	addi	a4,a4,4
    800010bc:	10e53823          	sd	a4,272(a0)
    800010c0:	fa1ff06f          	j	80001060 <__am_irq_handle+0x3c>
    800010c4:	00008067          	ret
    800010c8:	11053703          	ld	a4,272(a0)
    800010cc:	00100693          	li	a3,1
    800010d0:	02d12023          	sw	a3,32(sp)
    800010d4:	00470713          	addi	a4,a4,4
    800010d8:	10e53823          	sd	a4,272(a0)
    800010dc:	f85ff06f          	j	80001060 <__am_irq_handle+0x3c>
    800010e0:	01a00613          	li	a2,26
    800010e4:	00002597          	auipc	a1,0x2
    800010e8:	19c58593          	addi	a1,a1,412 # 80003280 <__func__.2+0xb0>
    800010ec:	00002517          	auipc	a0,0x2
    800010f0:	1e450513          	addi	a0,a0,484 # 800032d0 <__func__.2+0x100>
    800010f4:	360000ef          	jal	ra,80001454 <printf>
    800010f8:	00100513          	li	a0,1
    800010fc:	c39ff0ef          	jal	ra,80000d34 <halt>

0000000080001100 <cte_init>:
    80001100:	00050793          	mv	a5,a0
    80001104:	00000717          	auipc	a4,0x0
    80001108:	02c70713          	addi	a4,a4,44 # 80001130 <__am_asm_trap>
    8000110c:	30571073          	csrw	mtvec,a4
    80001110:	00100513          	li	a0,1
    80001114:	001d6717          	auipc	a4,0x1d6
    80001118:	f0f73223          	sd	a5,-252(a4) # 801d7018 <user_handler>
    8000111c:	00008067          	ret

0000000080001120 <yield>:
    80001120:	fff00893          	li	a7,-1
    80001124:	00000073          	ecall
    80001128:	00008067          	ret
    8000112c:	0000                	unimp
	...

0000000080001130 <__am_asm_trap>:
    80001130:	ee010113          	addi	sp,sp,-288
    80001134:	00113423          	sd	ra,8(sp)
    80001138:	00313c23          	sd	gp,24(sp)
    8000113c:	02413023          	sd	tp,32(sp)
    80001140:	02513423          	sd	t0,40(sp)
    80001144:	02613823          	sd	t1,48(sp)
    80001148:	02713c23          	sd	t2,56(sp)
    8000114c:	04813023          	sd	s0,64(sp)
    80001150:	04913423          	sd	s1,72(sp)
    80001154:	04a13823          	sd	a0,80(sp)
    80001158:	04b13c23          	sd	a1,88(sp)
    8000115c:	06c13023          	sd	a2,96(sp)
    80001160:	06d13423          	sd	a3,104(sp)
    80001164:	06e13823          	sd	a4,112(sp)
    80001168:	06f13c23          	sd	a5,120(sp)
    8000116c:	09013023          	sd	a6,128(sp)
    80001170:	09113423          	sd	a7,136(sp)
    80001174:	09213823          	sd	s2,144(sp)
    80001178:	09313c23          	sd	s3,152(sp)
    8000117c:	0b413023          	sd	s4,160(sp)
    80001180:	0b513423          	sd	s5,168(sp)
    80001184:	0b613823          	sd	s6,176(sp)
    80001188:	0b713c23          	sd	s7,184(sp)
    8000118c:	0d813023          	sd	s8,192(sp)
    80001190:	0d913423          	sd	s9,200(sp)
    80001194:	0da13823          	sd	s10,208(sp)
    80001198:	0db13c23          	sd	s11,216(sp)
    8000119c:	0fc13023          	sd	t3,224(sp)
    800011a0:	0fd13423          	sd	t4,232(sp)
    800011a4:	0fe13823          	sd	t5,240(sp)
    800011a8:	0ff13c23          	sd	t6,248(sp)
    800011ac:	342022f3          	csrr	t0,mcause
    800011b0:	30002373          	csrr	t1,mstatus
    800011b4:	341023f3          	csrr	t2,mepc
    800011b8:	10513023          	sd	t0,256(sp)
    800011bc:	10613423          	sd	t1,264(sp)
    800011c0:	10713823          	sd	t2,272(sp)
    800011c4:	00020537          	lui	a0,0x20
    800011c8:	00a36333          	or	t1,t1,a0
    800011cc:	30031073          	csrw	mstatus,t1
    800011d0:	00010513          	mv	a0,sp
    800011d4:	e51ff0ef          	jal	ra,80001024 <__am_irq_handle>
    800011d8:	10813303          	ld	t1,264(sp)
    800011dc:	11013383          	ld	t2,272(sp)
    800011e0:	30031073          	csrw	mstatus,t1
    800011e4:	34139073          	csrw	mepc,t2
    800011e8:	00813083          	ld	ra,8(sp)
    800011ec:	01813183          	ld	gp,24(sp)
    800011f0:	02013203          	ld	tp,32(sp)
    800011f4:	02813283          	ld	t0,40(sp)
    800011f8:	03013303          	ld	t1,48(sp)
    800011fc:	03813383          	ld	t2,56(sp)
    80001200:	04013403          	ld	s0,64(sp)
    80001204:	04813483          	ld	s1,72(sp)
    80001208:	05013503          	ld	a0,80(sp)
    8000120c:	05813583          	ld	a1,88(sp)
    80001210:	06013603          	ld	a2,96(sp)
    80001214:	06813683          	ld	a3,104(sp)
    80001218:	07013703          	ld	a4,112(sp)
    8000121c:	07813783          	ld	a5,120(sp)
    80001220:	08013803          	ld	a6,128(sp)
    80001224:	08813883          	ld	a7,136(sp)
    80001228:	09013903          	ld	s2,144(sp)
    8000122c:	09813983          	ld	s3,152(sp)
    80001230:	0a013a03          	ld	s4,160(sp)
    80001234:	0a813a83          	ld	s5,168(sp)
    80001238:	0b013b03          	ld	s6,176(sp)
    8000123c:	0b813b83          	ld	s7,184(sp)
    80001240:	0c013c03          	ld	s8,192(sp)
    80001244:	0c813c83          	ld	s9,200(sp)
    80001248:	0d013d03          	ld	s10,208(sp)
    8000124c:	0d813d83          	ld	s11,216(sp)
    80001250:	0e013e03          	ld	t3,224(sp)
    80001254:	0e813e83          	ld	t4,232(sp)
    80001258:	0f013f03          	ld	t5,240(sp)
    8000125c:	0f813f83          	ld	t6,248(sp)
    80001260:	12010113          	addi	sp,sp,288
    80001264:	30200073          	mret
    80001268:	0000                	unimp
	...

000000008000126c <strcmp>:
    8000126c:	00054783          	lbu	a5,0(a0) # 20000 <_entry_offset+0x20000>
    80001270:	0005c703          	lbu	a4,0(a1)
    80001274:	00f71c63          	bne	a4,a5,8000128c <strcmp+0x20>
    80001278:	00150513          	addi	a0,a0,1
    8000127c:	00158593          	addi	a1,a1,1
    80001280:	fe0796e3          	bnez	a5,8000126c <strcmp>
    80001284:	00000513          	li	a0,0
    80001288:	00008067          	ret
    8000128c:	40e7853b          	subw	a0,a5,a4
    80001290:	00008067          	ret

0000000080001294 <memset>:
    80001294:	0ff5f593          	zext.b	a1,a1
    80001298:	00c50733          	add	a4,a0,a2
    8000129c:	00050793          	mv	a5,a0
    800012a0:	00060863          	beqz	a2,800012b0 <memset+0x1c>
    800012a4:	00178793          	addi	a5,a5,1
    800012a8:	feb78fa3          	sb	a1,-1(a5)
    800012ac:	fee79ce3          	bne	a5,a4,800012a4 <memset+0x10>
    800012b0:	00008067          	ret

00000000800012b4 <memcpy>:
    800012b4:	02060063          	beqz	a2,800012d4 <memcpy+0x20>
    800012b8:	00c50633          	add	a2,a0,a2
    800012bc:	00050793          	mv	a5,a0
    800012c0:	0005c703          	lbu	a4,0(a1)
    800012c4:	00178793          	addi	a5,a5,1
    800012c8:	00158593          	addi	a1,a1,1
    800012cc:	fee78fa3          	sb	a4,-1(a5)
    800012d0:	fec798e3          	bne	a5,a2,800012c0 <memcpy+0xc>
    800012d4:	00008067          	ret

00000000800012d8 <malloc>:
    800012d8:	00750513          	addi	a0,a0,7
    800012dc:	001cd797          	auipc	a5,0x1cd
    800012e0:	0847a783          	lw	a5,132(a5) # 801ce360 <malloc_flag>
    800012e4:	ff857513          	andi	a0,a0,-8
    800012e8:	00079e63          	bnez	a5,80001304 <malloc+0x2c>
    800012ec:	001d6717          	auipc	a4,0x1d6
    800012f0:	d3470713          	addi	a4,a4,-716 # 801d7020 <addr>
    800012f4:	00073783          	ld	a5,0(a4)
    800012f8:	00a78533          	add	a0,a5,a0
    800012fc:	00a73023          	sd	a0,0(a4)
    80001300:	00008067          	ret
    80001304:	001cd797          	auipc	a5,0x1cd
    80001308:	c4c7b783          	ld	a5,-948(a5) # 801cdf50 <heap>
    8000130c:	001cd717          	auipc	a4,0x1cd
    80001310:	04072a23          	sw	zero,84(a4) # 801ce360 <malloc_flag>
    80001314:	001d6717          	auipc	a4,0x1d6
    80001318:	d0c70713          	addi	a4,a4,-756 # 801d7020 <addr>
    8000131c:	00a78533          	add	a0,a5,a0
    80001320:	00a73023          	sd	a0,0(a4)
    80001324:	00008067          	ret

0000000080001328 <printNum.part.0>:
    80001328:	fc010113          	addi	sp,sp,-64
    8000132c:	02813823          	sd	s0,48(sp)
    80001330:	02913423          	sd	s1,40(sp)
    80001334:	02113c23          	sd	ra,56(sp)
    80001338:	03213023          	sd	s2,32(sp)
    8000133c:	01313c23          	sd	s3,24(sp)
    80001340:	01413823          	sd	s4,16(sp)
    80001344:	01513423          	sd	s5,8(sp)
    80001348:	00050493          	mv	s1,a0
    8000134c:	00058413          	mv	s0,a1
    80001350:	04b57a63          	bgeu	a0,a1,800013a4 <printNum.part.0+0x7c>
    80001354:	00002917          	auipc	s2,0x2
    80001358:	f9c90913          	addi	s2,s2,-100 # 800032f0 <__func__.2+0x120>
    8000135c:	001d6997          	auipc	s3,0x1d6
    80001360:	ccc98993          	addi	s3,s3,-820 # 801d7028 <printf_count>
    80001364:	0284f433          	remu	s0,s1,s0
    80001368:	00890433          	add	s0,s2,s0
    8000136c:	00044503          	lbu	a0,0(s0)
    80001370:	9b5ff0ef          	jal	ra,80000d24 <putch>
    80001374:	0009a783          	lw	a5,0(s3)
    80001378:	03813083          	ld	ra,56(sp)
    8000137c:	03013403          	ld	s0,48(sp)
    80001380:	0017879b          	addiw	a5,a5,1
    80001384:	00f9a023          	sw	a5,0(s3)
    80001388:	02813483          	ld	s1,40(sp)
    8000138c:	02013903          	ld	s2,32(sp)
    80001390:	01813983          	ld	s3,24(sp)
    80001394:	01013a03          	ld	s4,16(sp)
    80001398:	00813a83          	ld	s5,8(sp)
    8000139c:	04010113          	addi	sp,sp,64
    800013a0:	00008067          	ret
    800013a4:	02b55a33          	divu	s4,a0,a1
    800013a8:	02ba7a63          	bgeu	s4,a1,800013dc <printNum.part.0+0xb4>
    800013ac:	00002917          	auipc	s2,0x2
    800013b0:	f4490913          	addi	s2,s2,-188 # 800032f0 <__func__.2+0x120>
    800013b4:	001d6997          	auipc	s3,0x1d6
    800013b8:	c7498993          	addi	s3,s3,-908 # 801d7028 <printf_count>
    800013bc:	028a7a33          	remu	s4,s4,s0
    800013c0:	01490a33          	add	s4,s2,s4
    800013c4:	000a4503          	lbu	a0,0(s4)
    800013c8:	95dff0ef          	jal	ra,80000d24 <putch>
    800013cc:	0009a783          	lw	a5,0(s3)
    800013d0:	0017879b          	addiw	a5,a5,1
    800013d4:	00f9a023          	sw	a5,0(s3)
    800013d8:	f8dff06f          	j	80001364 <printNum.part.0+0x3c>
    800013dc:	02ba5ab3          	divu	s5,s4,a1
    800013e0:	02bafa63          	bgeu	s5,a1,80001414 <printNum.part.0+0xec>
    800013e4:	00002917          	auipc	s2,0x2
    800013e8:	f0c90913          	addi	s2,s2,-244 # 800032f0 <__func__.2+0x120>
    800013ec:	001d6997          	auipc	s3,0x1d6
    800013f0:	c3c98993          	addi	s3,s3,-964 # 801d7028 <printf_count>
    800013f4:	028afab3          	remu	s5,s5,s0
    800013f8:	01590ab3          	add	s5,s2,s5
    800013fc:	000ac503          	lbu	a0,0(s5)
    80001400:	925ff0ef          	jal	ra,80000d24 <putch>
    80001404:	0009a783          	lw	a5,0(s3)
    80001408:	0017879b          	addiw	a5,a5,1
    8000140c:	00f9a023          	sw	a5,0(s3)
    80001410:	fadff06f          	j	800013bc <printNum.part.0+0x94>
    80001414:	02bad933          	divu	s2,s5,a1
    80001418:	00b96663          	bltu	s2,a1,80001424 <printNum.part.0+0xfc>
    8000141c:	02b95533          	divu	a0,s2,a1
    80001420:	f09ff0ef          	jal	ra,80001328 <printNum.part.0>
    80001424:	028977b3          	remu	a5,s2,s0
    80001428:	00002917          	auipc	s2,0x2
    8000142c:	ec890913          	addi	s2,s2,-312 # 800032f0 <__func__.2+0x120>
    80001430:	001d6997          	auipc	s3,0x1d6
    80001434:	bf898993          	addi	s3,s3,-1032 # 801d7028 <printf_count>
    80001438:	00f907b3          	add	a5,s2,a5
    8000143c:	0007c503          	lbu	a0,0(a5)
    80001440:	8e5ff0ef          	jal	ra,80000d24 <putch>
    80001444:	0009a783          	lw	a5,0(s3)
    80001448:	0017879b          	addiw	a5,a5,1
    8000144c:	00f9a023          	sw	a5,0(s3)
    80001450:	fa5ff06f          	j	800013f4 <printNum.part.0+0xcc>

0000000080001454 <printf>:
    80001454:	f3010113          	addi	sp,sp,-208
    80001458:	08813023          	sd	s0,128(sp)
    8000145c:	03b13423          	sd	s11,40(sp)
    80001460:	00050413          	mv	s0,a0
    80001464:	08113423          	sd	ra,136(sp)
    80001468:	06913c23          	sd	s1,120(sp)
    8000146c:	07213823          	sd	s2,112(sp)
    80001470:	07313423          	sd	s3,104(sp)
    80001474:	07413023          	sd	s4,96(sp)
    80001478:	05513c23          	sd	s5,88(sp)
    8000147c:	05613823          	sd	s6,80(sp)
    80001480:	05713423          	sd	s7,72(sp)
    80001484:	05813023          	sd	s8,64(sp)
    80001488:	03913c23          	sd	s9,56(sp)
    8000148c:	03a13823          	sd	s10,48(sp)
    80001490:	001d6517          	auipc	a0,0x1d6
    80001494:	b8052c23          	sw	zero,-1128(a0) # 801d7028 <printf_count>
    80001498:	00044503          	lbu	a0,0(s0)
    8000149c:	0af13c23          	sd	a5,184(sp)
    800014a0:	09810793          	addi	a5,sp,152
    800014a4:	08b13c23          	sd	a1,152(sp)
    800014a8:	0ac13023          	sd	a2,160(sp)
    800014ac:	0ad13423          	sd	a3,168(sp)
    800014b0:	0ae13823          	sd	a4,176(sp)
    800014b4:	0d013023          	sd	a6,192(sp)
    800014b8:	0d113423          	sd	a7,200(sp)
    800014bc:	00f13c23          	sd	a5,24(sp)
    800014c0:	001d6d97          	auipc	s11,0x1d6
    800014c4:	b68d8d93          	addi	s11,s11,-1176 # 801d7028 <printf_count>
    800014c8:	0c050a63          	beqz	a0,8000159c <printf+0x148>
    800014cc:	00000c93          	li	s9,0
    800014d0:	02500493          	li	s1,37
    800014d4:	01500993          	li	s3,21
    800014d8:	00002917          	auipc	s2,0x2
    800014dc:	e2c90913          	addi	s2,s2,-468 # 80003304 <__func__.2+0x134>
    800014e0:	00900b93          	li	s7,9
    800014e4:	00002a17          	auipc	s4,0x2
    800014e8:	e0ca0a13          	addi	s4,s4,-500 # 800032f0 <__func__.2+0x120>
    800014ec:	00a00a93          	li	s5,10
    800014f0:	06300c13          	li	s8,99
    800014f4:	00f00b13          	li	s6,15
    800014f8:	001c8d1b          	addiw	s10,s9,1
    800014fc:	1a951663          	bne	a0,s1,800016a8 <printf+0x254>
    80001500:	01a40d33          	add	s10,s0,s10
    80001504:	000d4783          	lbu	a5,0(s10)
    80001508:	f9d7879b          	addiw	a5,a5,-99
    8000150c:	0ff7f793          	zext.b	a5,a5
    80001510:	06f9ee63          	bltu	s3,a5,8000158c <printf+0x138>
    80001514:	00279793          	slli	a5,a5,0x2
    80001518:	012787b3          	add	a5,a5,s2
    8000151c:	0007a783          	lw	a5,0(a5)
    80001520:	012787b3          	add	a5,a5,s2
    80001524:	00078067          	jr	a5
    80001528:	01813783          	ld	a5,24(sp)
    8000152c:	0007ad03          	lw	s10,0(a5)
    80001530:	00878793          	addi	a5,a5,8
    80001534:	00f13c23          	sd	a5,24(sp)
    80001538:	0e0d0663          	beqz	s10,80001624 <printf+0x1d0>
    8000153c:	03ab7a63          	bgeu	s6,s10,80001570 <printf+0x11c>
    80001540:	020d1793          	slli	a5,s10,0x20
    80001544:	0ff00713          	li	a4,255
    80001548:	0207d793          	srli	a5,a5,0x20
    8000154c:	1ba76463          	bltu	a4,s10,800016f4 <printf+0x2a0>
    80001550:	0047d793          	srli	a5,a5,0x4
    80001554:	00f7f793          	andi	a5,a5,15
    80001558:	00fa07b3          	add	a5,s4,a5
    8000155c:	0007c503          	lbu	a0,0(a5)
    80001560:	fc4ff0ef          	jal	ra,80000d24 <putch>
    80001564:	000da783          	lw	a5,0(s11)
    80001568:	0017879b          	addiw	a5,a5,1
    8000156c:	00fda023          	sw	a5,0(s11)
    80001570:	00fd7d13          	andi	s10,s10,15
    80001574:	01aa0d33          	add	s10,s4,s10
    80001578:	000d4503          	lbu	a0,0(s10)
    8000157c:	fa8ff0ef          	jal	ra,80000d24 <putch>
    80001580:	000da783          	lw	a5,0(s11)
    80001584:	0017879b          	addiw	a5,a5,1
    80001588:	00fda023          	sw	a5,0(s11)
    8000158c:	002c8c9b          	addiw	s9,s9,2
    80001590:	019407b3          	add	a5,s0,s9
    80001594:	0007c503          	lbu	a0,0(a5)
    80001598:	f60510e3          	bnez	a0,800014f8 <printf+0xa4>
    8000159c:	08813083          	ld	ra,136(sp)
    800015a0:	08013403          	ld	s0,128(sp)
    800015a4:	000da503          	lw	a0,0(s11)
    800015a8:	07813483          	ld	s1,120(sp)
    800015ac:	07013903          	ld	s2,112(sp)
    800015b0:	06813983          	ld	s3,104(sp)
    800015b4:	06013a03          	ld	s4,96(sp)
    800015b8:	05813a83          	ld	s5,88(sp)
    800015bc:	05013b03          	ld	s6,80(sp)
    800015c0:	04813b83          	ld	s7,72(sp)
    800015c4:	04013c03          	ld	s8,64(sp)
    800015c8:	03813c83          	ld	s9,56(sp)
    800015cc:	03013d03          	ld	s10,48(sp)
    800015d0:	02813d83          	ld	s11,40(sp)
    800015d4:	0d010113          	addi	sp,sp,208
    800015d8:	00008067          	ret
    800015dc:	01813783          	ld	a5,24(sp)
    800015e0:	0007ad03          	lw	s10,0(a5)
    800015e4:	00878793          	addi	a5,a5,8
    800015e8:	00f13c23          	sd	a5,24(sp)
    800015ec:	120d4063          	bltz	s10,8000170c <printf+0x2b8>
    800015f0:	020d0a63          	beqz	s10,80001624 <printf+0x1d0>
    800015f4:	03abd463          	bge	s7,s10,8000161c <printf+0x1c8>
    800015f8:	035d57b3          	divu	a5,s10,s5
    800015fc:	0dac4263          	blt	s8,s10,800016c0 <printf+0x26c>
    80001600:	0357f7b3          	remu	a5,a5,s5
    80001604:	00fa07b3          	add	a5,s4,a5
    80001608:	0007c503          	lbu	a0,0(a5)
    8000160c:	f18ff0ef          	jal	ra,80000d24 <putch>
    80001610:	000da783          	lw	a5,0(s11)
    80001614:	0017879b          	addiw	a5,a5,1
    80001618:	00fda023          	sw	a5,0(s11)
    8000161c:	035d7d33          	remu	s10,s10,s5
    80001620:	f55ff06f          	j	80001574 <printf+0x120>
    80001624:	03000513          	li	a0,48
    80001628:	efcff0ef          	jal	ra,80000d24 <putch>
    8000162c:	f61ff06f          	j	8000158c <printf+0x138>
    80001630:	01813783          	ld	a5,24(sp)
    80001634:	0007bd03          	ld	s10,0(a5)
    80001638:	00878793          	addi	a5,a5,8
    8000163c:	00f13c23          	sd	a5,24(sp)
    80001640:	000d4503          	lbu	a0,0(s10)
    80001644:	001d0d13          	addi	s10,s10,1
    80001648:	f40502e3          	beqz	a0,8000158c <printf+0x138>
    8000164c:	ed8ff0ef          	jal	ra,80000d24 <putch>
    80001650:	000da783          	lw	a5,0(s11)
    80001654:	001d0d13          	addi	s10,s10,1
    80001658:	0017879b          	addiw	a5,a5,1
    8000165c:	00fda023          	sw	a5,0(s11)
    80001660:	fffd4503          	lbu	a0,-1(s10)
    80001664:	fe0514e3          	bnez	a0,8000164c <printf+0x1f8>
    80001668:	f25ff06f          	j	8000158c <printf+0x138>
    8000166c:	01813783          	ld	a5,24(sp)
    80001670:	0007ad03          	lw	s10,0(a5)
    80001674:	00878793          	addi	a5,a5,8
    80001678:	00f13c23          	sd	a5,24(sp)
    8000167c:	f60d5ae3          	bgez	s10,800015f0 <printf+0x19c>
    80001680:	02d00513          	li	a0,45
    80001684:	ea0ff0ef          	jal	ra,80000d24 <putch>
    80001688:	41a00d3b          	negw	s10,s10
    8000168c:	f69ff06f          	j	800015f4 <printf+0x1a0>
    80001690:	01813783          	ld	a5,24(sp)
    80001694:	0007c503          	lbu	a0,0(a5)
    80001698:	00878793          	addi	a5,a5,8
    8000169c:	00f13c23          	sd	a5,24(sp)
    800016a0:	e84ff0ef          	jal	ra,80000d24 <putch>
    800016a4:	ee9ff06f          	j	8000158c <printf+0x138>
    800016a8:	e7cff0ef          	jal	ra,80000d24 <putch>
    800016ac:	000da783          	lw	a5,0(s11)
    800016b0:	000d0c93          	mv	s9,s10
    800016b4:	0017879b          	addiw	a5,a5,1
    800016b8:	00fda023          	sw	a5,0(s11)
    800016bc:	ed5ff06f          	j	80001590 <printf+0x13c>
    800016c0:	0357d533          	divu	a0,a5,s5
    800016c4:	00a00593          	li	a1,10
    800016c8:	00f13423          	sd	a5,8(sp)
    800016cc:	c5dff0ef          	jal	ra,80001328 <printNum.part.0>
    800016d0:	00813783          	ld	a5,8(sp)
    800016d4:	0357f7b3          	remu	a5,a5,s5
    800016d8:	00fa07b3          	add	a5,s4,a5
    800016dc:	0007c503          	lbu	a0,0(a5)
    800016e0:	e44ff0ef          	jal	ra,80000d24 <putch>
    800016e4:	000da783          	lw	a5,0(s11)
    800016e8:	0017879b          	addiw	a5,a5,1
    800016ec:	00fda023          	sw	a5,0(s11)
    800016f0:	f2dff06f          	j	8000161c <printf+0x1c8>
    800016f4:	0087d513          	srli	a0,a5,0x8
    800016f8:	01000593          	li	a1,16
    800016fc:	00f13423          	sd	a5,8(sp)
    80001700:	c29ff0ef          	jal	ra,80001328 <printNum.part.0>
    80001704:	00813783          	ld	a5,8(sp)
    80001708:	e49ff06f          	j	80001550 <printf+0xfc>
    8000170c:	02d00513          	li	a0,45
    80001710:	e14ff0ef          	jal	ra,80000d24 <putch>
    80001714:	41a00d33          	neg	s10,s10
    80001718:	eddff06f          	j	800015f4 <printf+0x1a0>

000000008000171c <sprintf>:
    8000171c:	ea010113          	addi	sp,sp,-352
    80001720:	10913c23          	sd	s1,280(sp)
    80001724:	14e13023          	sd	a4,320(sp)
    80001728:	12113423          	sd	ra,296(sp)
    8000172c:	12813023          	sd	s0,288(sp)
    80001730:	11213823          	sd	s2,272(sp)
    80001734:	11313423          	sd	s3,264(sp)
    80001738:	11413023          	sd	s4,256(sp)
    8000173c:	0f513c23          	sd	s5,248(sp)
    80001740:	0f613823          	sd	s6,240(sp)
    80001744:	0f713423          	sd	s7,232(sp)
    80001748:	0f813023          	sd	s8,224(sp)
    8000174c:	0d913c23          	sd	s9,216(sp)
    80001750:	0da13823          	sd	s10,208(sp)
    80001754:	0db13423          	sd	s11,200(sp)
    80001758:	12c13823          	sd	a2,304(sp)
    8000175c:	12d13c23          	sd	a3,312(sp)
    80001760:	14f13423          	sd	a5,328(sp)
    80001764:	15013823          	sd	a6,336(sp)
    80001768:	15113c23          	sd	a7,344(sp)
    8000176c:	0005c783          	lbu	a5,0(a1)
    80001770:	13010713          	addi	a4,sp,304
    80001774:	00e13423          	sd	a4,8(sp)
    80001778:	00050493          	mv	s1,a0
    8000177c:	32078e63          	beqz	a5,80001ab8 <sprintf+0x39c>
    80001780:	08010a13          	addi	s4,sp,128
    80001784:	04810d93          	addi	s11,sp,72
    80001788:	00100c93          	li	s9,1
    8000178c:	00058413          	mv	s0,a1
    80001790:	000a0b13          	mv	s6,s4
    80001794:	00000b93          	li	s7,0
    80001798:	02500d13          	li	s10,37
    8000179c:	06c00993          	li	s3,108
    800017a0:	06400913          	li	s2,100
    800017a4:	ff700a93          	li	s5,-9
    800017a8:	41bc8cbb          	subw	s9,s9,s11
    800017ac:	0200006f          	j	800017cc <sprintf+0xb0>
    800017b0:	00fb0023          	sb	a5,0(s6)
    800017b4:	001b8b9b          	addiw	s7,s7,1
    800017b8:	001b0b13          	addi	s6,s6,1
    800017bc:	00040c13          	mv	s8,s0
    800017c0:	001c4783          	lbu	a5,1(s8)
    800017c4:	001c0413          	addi	s0,s8,1
    800017c8:	12078463          	beqz	a5,800018f0 <sprintf+0x1d4>
    800017cc:	00140c13          	addi	s8,s0,1
    800017d0:	ffa790e3          	bne	a5,s10,800017b0 <sprintf+0x94>
    800017d4:	03200613          	li	a2,50
    800017d8:	00000593          	li	a1,0
    800017dc:	000d8513          	mv	a0,s11
    800017e0:	ab5ff0ef          	jal	ra,80001294 <memset>
    800017e4:	03200613          	li	a2,50
    800017e8:	00000593          	li	a1,0
    800017ec:	01010513          	addi	a0,sp,16
    800017f0:	aa5ff0ef          	jal	ra,80001294 <memset>
    800017f4:	00144783          	lbu	a5,1(s0)
    800017f8:	19378863          	beq	a5,s3,80001988 <sprintf+0x26c>
    800017fc:	07300713          	li	a4,115
    80001800:	14e78463          	beq	a5,a4,80001948 <sprintf+0x22c>
    80001804:	fb279ee3          	bne	a5,s2,800017c0 <sprintf+0xa4>
    80001808:	00813703          	ld	a4,8(sp)
    8000180c:	00072783          	lw	a5,0(a4)
    80001810:	00870713          	addi	a4,a4,8
    80001814:	00e13423          	sd	a4,8(sp)
    80001818:	2207ce63          	bltz	a5,80001a54 <sprintf+0x338>
    8000181c:	00900693          	li	a3,9
    80001820:	000d8713          	mv	a4,s11
    80001824:	00a00593          	li	a1,10
    80001828:	06300813          	li	a6,99
    8000182c:	00000613          	li	a2,0
    80001830:	02f6d263          	bge	a3,a5,80001854 <sprintf+0x138>
    80001834:	02b7e6bb          	remw	a3,a5,a1
    80001838:	00ec863b          	addw	a2,s9,a4
    8000183c:	00170713          	addi	a4,a4,1
    80001840:	00078513          	mv	a0,a5
    80001844:	0306869b          	addiw	a3,a3,48
    80001848:	fed70fa3          	sb	a3,-1(a4)
    8000184c:	02b7c7bb          	divw	a5,a5,a1
    80001850:	fea842e3          	blt	a6,a0,80001834 <sprintf+0x118>
    80001854:	0307879b          	addiw	a5,a5,48
    80001858:	0c010713          	addi	a4,sp,192
    8000185c:	0ff7f793          	zext.b	a5,a5
    80001860:	00c70733          	add	a4,a4,a2
    80001864:	f8f70423          	sb	a5,-120(a4)
    80001868:	01010713          	addi	a4,sp,16
    8000186c:	00cd86b3          	add	a3,s11,a2
    80001870:	00c70633          	add	a2,a4,a2
    80001874:	00c0006f          	j	80001880 <sprintf+0x164>
    80001878:	0006c783          	lbu	a5,0(a3)
    8000187c:	00170713          	addi	a4,a4,1
    80001880:	00f70023          	sb	a5,0(a4)
    80001884:	fff68693          	addi	a3,a3,-1
    80001888:	fee618e3          	bne	a2,a4,80001878 <sprintf+0x15c>
    8000188c:	01014683          	lbu	a3,16(sp)
    80001890:	02068a63          	beqz	a3,800018c4 <sprintf+0x1a8>
    80001894:	00000793          	li	a5,0
    80001898:	416b863b          	subw	a2,s7,s6
    8000189c:	0017879b          	addiw	a5,a5,1
    800018a0:	0ff7f713          	zext.b	a4,a5
    800018a4:	0c010593          	addi	a1,sp,192
    800018a8:	00e58733          	add	a4,a1,a4
    800018ac:	00db0023          	sb	a3,0(s6)
    800018b0:	f5074683          	lbu	a3,-176(a4)
    800018b4:	001b0b13          	addi	s6,s6,1
    800018b8:	01660bbb          	addw	s7,a2,s6
    800018bc:	0ff7f793          	zext.b	a5,a5
    800018c0:	fc069ee3          	bnez	a3,8000189c <sprintf+0x180>
    800018c4:	03200613          	li	a2,50
    800018c8:	00000593          	li	a1,0
    800018cc:	000d8513          	mv	a0,s11
    800018d0:	9c5ff0ef          	jal	ra,80001294 <memset>
    800018d4:	03200613          	li	a2,50
    800018d8:	00000593          	li	a1,0
    800018dc:	01010513          	addi	a0,sp,16
    800018e0:	9b5ff0ef          	jal	ra,80001294 <memset>
    800018e4:	001c4783          	lbu	a5,1(s8)
    800018e8:	001c0413          	addi	s0,s8,1
    800018ec:	ee0790e3          	bnez	a5,800017cc <sprintf+0xb0>
    800018f0:	000b8613          	mv	a2,s7
    800018f4:	01748433          	add	s0,s1,s7
    800018f8:	000a0593          	mv	a1,s4
    800018fc:	00048513          	mv	a0,s1
    80001900:	9b5ff0ef          	jal	ra,800012b4 <memcpy>
    80001904:	00040023          	sb	zero,0(s0)
    80001908:	12813083          	ld	ra,296(sp)
    8000190c:	12013403          	ld	s0,288(sp)
    80001910:	11813483          	ld	s1,280(sp)
    80001914:	11013903          	ld	s2,272(sp)
    80001918:	10813983          	ld	s3,264(sp)
    8000191c:	10013a03          	ld	s4,256(sp)
    80001920:	0f813a83          	ld	s5,248(sp)
    80001924:	0f013b03          	ld	s6,240(sp)
    80001928:	0e013c03          	ld	s8,224(sp)
    8000192c:	0d813c83          	ld	s9,216(sp)
    80001930:	0d013d03          	ld	s10,208(sp)
    80001934:	0c813d83          	ld	s11,200(sp)
    80001938:	000b8513          	mv	a0,s7
    8000193c:	0e813b83          	ld	s7,232(sp)
    80001940:	16010113          	addi	sp,sp,352
    80001944:	00008067          	ret
    80001948:	00813703          	ld	a4,8(sp)
    8000194c:	00073783          	ld	a5,0(a4)
    80001950:	00870713          	addi	a4,a4,8
    80001954:	00e13423          	sd	a4,8(sp)
    80001958:	0007c703          	lbu	a4,0(a5)
    8000195c:	e60702e3          	beqz	a4,800017c0 <sprintf+0xa4>
    80001960:	000b0413          	mv	s0,s6
    80001964:	416b863b          	subw	a2,s7,s6
    80001968:	00e40023          	sb	a4,0(s0)
    8000196c:	0017c703          	lbu	a4,1(a5)
    80001970:	00140413          	addi	s0,s0,1
    80001974:	00178793          	addi	a5,a5,1
    80001978:	00860bbb          	addw	s7,a2,s0
    8000197c:	fe0716e3          	bnez	a4,80001968 <sprintf+0x24c>
    80001980:	00040b13          	mv	s6,s0
    80001984:	e3dff06f          	j	800017c0 <sprintf+0xa4>
    80001988:	00244783          	lbu	a5,2(s0)
    8000198c:	00240c13          	addi	s8,s0,2
    80001990:	e32798e3          	bne	a5,s2,800017c0 <sprintf+0xa4>
    80001994:	00813703          	ld	a4,8(sp)
    80001998:	00073783          	ld	a5,0(a4)
    8000199c:	00870713          	addi	a4,a4,8
    800019a0:	00e13423          	sd	a4,8(sp)
    800019a4:	1207c463          	bltz	a5,80001acc <sprintf+0x3b0>
    800019a8:	00900693          	li	a3,9
    800019ac:	000d8713          	mv	a4,s11
    800019b0:	00a00593          	li	a1,10
    800019b4:	06300813          	li	a6,99
    800019b8:	00000613          	li	a2,0
    800019bc:	02f6d263          	bge	a3,a5,800019e0 <sprintf+0x2c4>
    800019c0:	02b7e6b3          	rem	a3,a5,a1
    800019c4:	00ec863b          	addw	a2,s9,a4
    800019c8:	00170713          	addi	a4,a4,1
    800019cc:	00078513          	mv	a0,a5
    800019d0:	0306869b          	addiw	a3,a3,48
    800019d4:	fed70fa3          	sb	a3,-1(a4)
    800019d8:	02b7c7b3          	div	a5,a5,a1
    800019dc:	fea842e3          	blt	a6,a0,800019c0 <sprintf+0x2a4>
    800019e0:	0307879b          	addiw	a5,a5,48
    800019e4:	0c010713          	addi	a4,sp,192
    800019e8:	0ff7f793          	zext.b	a5,a5
    800019ec:	00c70733          	add	a4,a4,a2
    800019f0:	f8f70423          	sb	a5,-120(a4)
    800019f4:	01010713          	addi	a4,sp,16
    800019f8:	00cd86b3          	add	a3,s11,a2
    800019fc:	00c70633          	add	a2,a4,a2
    80001a00:	00c0006f          	j	80001a0c <sprintf+0x2f0>
    80001a04:	0006c783          	lbu	a5,0(a3)
    80001a08:	00170713          	addi	a4,a4,1
    80001a0c:	00f70023          	sb	a5,0(a4)
    80001a10:	fff68693          	addi	a3,a3,-1
    80001a14:	fee618e3          	bne	a2,a4,80001a04 <sprintf+0x2e8>
    80001a18:	01014683          	lbu	a3,16(sp)
    80001a1c:	ea0684e3          	beqz	a3,800018c4 <sprintf+0x1a8>
    80001a20:	00000793          	li	a5,0
    80001a24:	416b863b          	subw	a2,s7,s6
    80001a28:	0017879b          	addiw	a5,a5,1
    80001a2c:	0ff7f713          	zext.b	a4,a5
    80001a30:	0c010593          	addi	a1,sp,192
    80001a34:	00e58733          	add	a4,a1,a4
    80001a38:	00db0023          	sb	a3,0(s6)
    80001a3c:	f5074683          	lbu	a3,-176(a4)
    80001a40:	001b0b13          	addi	s6,s6,1
    80001a44:	01660bbb          	addw	s7,a2,s6
    80001a48:	0ff7f793          	zext.b	a5,a5
    80001a4c:	fc069ee3          	bnez	a3,80001a28 <sprintf+0x30c>
    80001a50:	e75ff06f          	j	800018c4 <sprintf+0x1a8>
    80001a54:	0d57de63          	bge	a5,s5,80001b30 <sprintf+0x414>
    80001a58:	000d8693          	mv	a3,s11
    80001a5c:	00a00613          	li	a2,10
    80001a60:	f9d00813          	li	a6,-99
    80001a64:	02c7e73b          	remw	a4,a5,a2
    80001a68:	00dc853b          	addw	a0,s9,a3
    80001a6c:	00168693          	addi	a3,a3,1
    80001a70:	00078593          	mv	a1,a5
    80001a74:	40e0073b          	negw	a4,a4
    80001a78:	0307071b          	addiw	a4,a4,48
    80001a7c:	fee68fa3          	sb	a4,-1(a3)
    80001a80:	02c7c7bb          	divw	a5,a5,a2
    80001a84:	ff05c0e3          	blt	a1,a6,80001a64 <sprintf+0x348>
    80001a88:	0015061b          	addiw	a2,a0,1
    80001a8c:	0c010713          	addi	a4,sp,192
    80001a90:	00a70533          	add	a0,a4,a0
    80001a94:	03000713          	li	a4,48
    80001a98:	40f707bb          	subw	a5,a4,a5
    80001a9c:	f8f50423          	sb	a5,-120(a0)
    80001aa0:	0c010793          	addi	a5,sp,192
    80001aa4:	00c787b3          	add	a5,a5,a2
    80001aa8:	02d00713          	li	a4,45
    80001aac:	f8e78423          	sb	a4,-120(a5)
    80001ab0:	02d00793          	li	a5,45
    80001ab4:	db5ff06f          	j	80001868 <sprintf+0x14c>
    80001ab8:	00050413          	mv	s0,a0
    80001abc:	00000613          	li	a2,0
    80001ac0:	00000b93          	li	s7,0
    80001ac4:	08010a13          	addi	s4,sp,128
    80001ac8:	e31ff06f          	j	800018f8 <sprintf+0x1dc>
    80001acc:	0757d863          	bge	a5,s5,80001b3c <sprintf+0x420>
    80001ad0:	000d8693          	mv	a3,s11
    80001ad4:	00a00613          	li	a2,10
    80001ad8:	f9d00813          	li	a6,-99
    80001adc:	02c7e733          	rem	a4,a5,a2
    80001ae0:	00dc853b          	addw	a0,s9,a3
    80001ae4:	00168693          	addi	a3,a3,1
    80001ae8:	00078593          	mv	a1,a5
    80001aec:	40e0073b          	negw	a4,a4
    80001af0:	0307071b          	addiw	a4,a4,48
    80001af4:	fee68fa3          	sb	a4,-1(a3)
    80001af8:	02c7c7b3          	div	a5,a5,a2
    80001afc:	ff05c0e3          	blt	a1,a6,80001adc <sprintf+0x3c0>
    80001b00:	0015061b          	addiw	a2,a0,1
    80001b04:	0c010713          	addi	a4,sp,192
    80001b08:	00a70533          	add	a0,a4,a0
    80001b0c:	03000713          	li	a4,48
    80001b10:	40f707bb          	subw	a5,a4,a5
    80001b14:	f8f50423          	sb	a5,-120(a0)
    80001b18:	0c010793          	addi	a5,sp,192
    80001b1c:	00c787b3          	add	a5,a5,a2
    80001b20:	02d00713          	li	a4,45
    80001b24:	f8e78423          	sb	a4,-120(a5)
    80001b28:	02d00793          	li	a5,45
    80001b2c:	ec9ff06f          	j	800019f4 <sprintf+0x2d8>
    80001b30:	00100613          	li	a2,1
    80001b34:	00000513          	li	a0,0
    80001b38:	f55ff06f          	j	80001a8c <sprintf+0x370>
    80001b3c:	00100613          	li	a2,1
    80001b40:	00000513          	li	a0,0
    80001b44:	fc1ff06f          	j	80001b04 <sprintf+0x3e8>
